Component: ARM Compiler 5.06 update 7 (build 960) Tool: armlink [4d3601]

==============================================================================

Section Cross References

    main.o(i.main) refers to delay.o(i.delay_init) for delay_init
    main.o(i.main) refers to usart.o(i.uart_init) for uart_init
    main.o(i.main) refers to key.o(i.Key_IO_Init) for Key_IO_Init
    main.o(i.main) refers to led.o(i.RGB_IO_Init) for RGB_IO_Init
    main.o(i.main) refers to tft.o(i.LCD_Init) for LCD_Init
    main.o(i.main) refers to adc.o(i.MCU_Temperature_ADC_Init) for MCU_Temperature_ADC_Init
    main.o(i.main) refers to delay.o(i.delay_ms) for delay_ms
    main.o(i.main) refers to tft.o(i.LCD_Fill) for LCD_Fill
    main.o(i.main) refers to printfa.o(i.__0printf) for __2printf
    main.o(i.main) refers to power.o(i.Power_Get_Init) for Power_Get_Init
    main.o(i.main) refers to w25q64.o(i.W25Qxx_SPIAndIO_Init) for W25Qxx_SPIAndIO_Init
    main.o(i.main) refers to w25q64.o(i.W25QXX_ReadID) for W25QXX_ReadID
    main.o(i.main) refers to printfa.o(i.__0sprintf) for __2sprintf
    main.o(i.main) refers to tft.o(i.LCDDebug) for LCDDebug
    main.o(i.main) refers to malloc.o(i.my_mem_init) for my_mem_init
    main.o(i.main) refers to exfuns.o(i.exfuns_init) for exfuns_init
    main.o(i.main) refers to ff.o(i.f_mount) for f_mount
    main.o(i.main) refers to tft.o(i.LCD_ShowString) for LCD_ShowString
    main.o(i.main) refers to sd.o(i.SD_Init) for SD_Init
    main.o(i.main) refers to fontupd.o(i.update_font) for update_font
    main.o(i.main) refers to fontupd.o(i.font_init) for font_init
    main.o(i.main) refers to interface.o(i.Load_Animation) for Load_Animation
    main.o(i.main) refers to interface.o(i.User_Main_InterFace) for User_Main_InterFace
    main.o(i.main) refers to interface.o(i.SD_Casd_InterFace) for SD_Casd_InterFace
    main.o(i.main) refers to sd_iface.o(i.SD_IFace_information) for SD_IFace_information
    main.o(i.main) refers to sd_iface.o(i.SD_TXET_IFace) for SD_TXET_IFace
    main.o(i.main) refers to sd_iface.o(i.SD_Picture_IFace) for SD_Picture_IFace
    main.o(i.main) refers to interface.o(i.User_Modules_InterFace) for User_Modules_InterFace
    main.o(i.main) refers to main.o(.bss) for LCD_Debug_buf
    main.o(i.main) refers to main.o(.data) for Timeout_Flag
    main.o(i.main) refers to key.o(.data) for KEY_Flag
    main.o(i.main) refers to exfuns.o(.data) for fs
    main.o(i.main) refers to interface.o(.data) for InterFace_Flag
    system_stm32f10x.o(i.SetSysClock) refers to system_stm32f10x.o(i.SetSysClockTo72) for SetSysClockTo72
    system_stm32f10x.o(i.SystemCoreClockUpdate) refers to system_stm32f10x.o(.data) for SystemCoreClock
    system_stm32f10x.o(i.SystemInit) refers to system_stm32f10x.o(i.SetSysClock) for SetSysClock
    key.o(i.EXTI15_10_IRQHandler) refers to delay.o(i.delay_ms) for delay_ms
    key.o(i.EXTI15_10_IRQHandler) refers to stm32f10x_exti.o(i.EXTI_GetITStatus) for EXTI_GetITStatus
    key.o(i.EXTI15_10_IRQHandler) refers to stm32f10x_exti.o(i.EXTI_ClearITPendingBit) for EXTI_ClearITPendingBit
    key.o(i.EXTI15_10_IRQHandler) refers to key.o(.data) for KEY_Flag
    key.o(i.Key_IO_Init) refers to stm32f10x_rcc.o(i.RCC_APB2PeriphClockCmd) for RCC_APB2PeriphClockCmd
    key.o(i.Key_IO_Init) refers to stm32f10x_gpio.o(i.GPIO_Init) for GPIO_Init
    key.o(i.Key_IO_Init) refers to stm32f10x_gpio.o(i.GPIO_EXTILineConfig) for GPIO_EXTILineConfig
    key.o(i.Key_IO_Init) refers to stm32f10x_exti.o(i.EXTI_Init) for EXTI_Init
    key.o(i.Key_IO_Init) refers to misc.o(i.NVIC_PriorityGroupConfig) for NVIC_PriorityGroupConfig
    key.o(i.Key_IO_Init) refers to misc.o(i.NVIC_Init) for NVIC_Init
    led.o(i.RGB_IO_Init) refers to stm32f10x_rcc.o(i.RCC_APB2PeriphClockCmd) for RCC_APB2PeriphClockCmd
    led.o(i.RGB_IO_Init) refers to stm32f10x_gpio.o(i.GPIO_Init) for GPIO_Init
    tft.o(i.Draw_Circle) refers to tft.o(i.LCD_DrawPoint) for LCD_DrawPoint
    tft.o(i.LCDDebug) refers to tft.o(i.LCD_ShowChar) for LCD_ShowChar
    tft.o(i.LCD_Address_Set) refers to tft.o(i.LCD_WR_REG) for LCD_WR_REG
    tft.o(i.LCD_Address_Set) refers to tft.o(i.LCD_WR_DATA) for LCD_WR_DATA
    tft.o(i.LCD_Color_Fill) refers to tft.o(i.LCD_Address_Set) for LCD_Address_Set
    tft.o(i.LCD_Color_Fill) refers to delay.o(i.delay_us) for delay_us
    tft.o(i.LCD_Color_Fill) refers to stm32f10x_spi.o(i.SPI_Cmd) for SPI_Cmd
    tft.o(i.LCD_Color_Fill) refers to tft.o(i.MYDMA_Config1) for MYDMA_Config1
    tft.o(i.LCD_Color_Fill) refers to stm32f10x_spi.o(i.SPI_I2S_DMACmd) for SPI_I2S_DMACmd
    tft.o(i.LCD_Color_Fill) refers to tft.o(i.MYDMA_Enable) for MYDMA_Enable
    tft.o(i.LCD_Color_Fill) refers to stm32f10x_dma.o(i.DMA_GetFlagStatus) for DMA_GetFlagStatus
    tft.o(i.LCD_Color_Fill) refers to stm32f10x_dma.o(i.DMA_ClearFlag) for DMA_ClearFlag
    tft.o(i.LCD_DrawLine) refers to tft.o(i.LCD_DrawPoint) for LCD_DrawPoint
    tft.o(i.LCD_DrawPoint) refers to tft.o(i.LCD_Address_Set) for LCD_Address_Set
    tft.o(i.LCD_DrawPoint) refers to tft.o(i.LCD_WR_DATA) for LCD_WR_DATA
    tft.o(i.LCD_DrawRectangle) refers to tft.o(i.LCD_DrawLine) for LCD_DrawLine
    tft.o(i.LCD_Fill) refers to tft.o(i.LCD_Address_Set) for LCD_Address_Set
    tft.o(i.LCD_Fill) refers to delay.o(i.delay_us) for delay_us
    tft.o(i.LCD_Fill) refers to stm32f10x_spi.o(i.SPI_Cmd) for SPI_Cmd
    tft.o(i.LCD_Fill) refers to tft.o(i.MYDMA_Config1) for MYDMA_Config1
    tft.o(i.LCD_Fill) refers to stm32f10x_spi.o(i.SPI_I2S_DMACmd) for SPI_I2S_DMACmd
    tft.o(i.LCD_Fill) refers to tft.o(i.MYDMA_Enable) for MYDMA_Enable
    tft.o(i.LCD_Fill) refers to stm32f10x_dma.o(i.DMA_GetFlagStatus) for DMA_GetFlagStatus
    tft.o(i.LCD_Fill) refers to stm32f10x_dma.o(i.DMA_ClearFlag) for DMA_ClearFlag
    tft.o(i.LCD_Init) refers to tft.o(i.TFT_SPI_Init) for TFT_SPI_Init
    tft.o(i.LCD_Init) refers to stm32f10x_gpio.o(i.GPIO_ResetBits) for GPIO_ResetBits
    tft.o(i.LCD_Init) refers to delay.o(i.delay_ms) for delay_ms
    tft.o(i.LCD_Init) refers to stm32f10x_gpio.o(i.GPIO_SetBits) for GPIO_SetBits
    tft.o(i.LCD_Init) refers to tft.o(i.LCD_WR_REG) for LCD_WR_REG
    tft.o(i.LCD_Init) refers to tft.o(i.LCD_WR_DATA8) for LCD_WR_DATA8
    tft.o(i.LCD_ShowChar) refers to tft.o(i.LCD_Address_Set) for LCD_Address_Set
    tft.o(i.LCD_ShowChar) refers to tft.o(i.LCD_WR_DATA) for LCD_WR_DATA
    tft.o(i.LCD_ShowChar) refers to tft.o(i.LCD_DrawPoint) for LCD_DrawPoint
    tft.o(i.LCD_ShowChar) refers to tft.o(.constdata) for ascii_1206
    tft.o(i.LCD_ShowChinese) refers to tft.o(i.LCD_ShowChinese12x12) for LCD_ShowChinese12x12
    tft.o(i.LCD_ShowChinese) refers to tft.o(i.LCD_ShowChinese16x16) for LCD_ShowChinese16x16
    tft.o(i.LCD_ShowChinese) refers to tft.o(i.LCD_ShowChinese24x24) for LCD_ShowChinese24x24
    tft.o(i.LCD_ShowChinese) refers to tft.o(i.LCD_ShowChinese32x32) for LCD_ShowChinese32x32
    tft.o(i.LCD_ShowChinese12x12) refers to tft.o(i.LCD_Address_Set) for LCD_Address_Set
    tft.o(i.LCD_ShowChinese12x12) refers to tft.o(i.LCD_WR_DATA) for LCD_WR_DATA
    tft.o(i.LCD_ShowChinese12x12) refers to tft.o(i.LCD_DrawPoint) for LCD_DrawPoint
    tft.o(i.LCD_ShowChinese12x12) refers to tft.o(.constdata) for tfont12
    tft.o(i.LCD_ShowChinese16x16) refers to tft.o(i.LCD_Address_Set) for LCD_Address_Set
    tft.o(i.LCD_ShowChinese16x16) refers to tft.o(i.LCD_WR_DATA) for LCD_WR_DATA
    tft.o(i.LCD_ShowChinese16x16) refers to tft.o(i.LCD_DrawPoint) for LCD_DrawPoint
    tft.o(i.LCD_ShowChinese16x16) refers to tft.o(.constdata) for tfont16
    tft.o(i.LCD_ShowChinese24x24) refers to tft.o(i.LCD_Address_Set) for LCD_Address_Set
    tft.o(i.LCD_ShowChinese24x24) refers to tft.o(i.LCD_WR_DATA) for LCD_WR_DATA
    tft.o(i.LCD_ShowChinese24x24) refers to tft.o(i.LCD_DrawPoint) for LCD_DrawPoint
    tft.o(i.LCD_ShowChinese24x24) refers to tft.o(.constdata) for tfont24
    tft.o(i.LCD_ShowChinese32x32) refers to tft.o(i.LCD_Address_Set) for LCD_Address_Set
    tft.o(i.LCD_ShowChinese32x32) refers to tft.o(i.LCD_WR_DATA) for LCD_WR_DATA
    tft.o(i.LCD_ShowChinese32x32) refers to tft.o(i.LCD_DrawPoint) for LCD_DrawPoint
    tft.o(i.LCD_ShowChinese32x32) refers to tft.o(.constdata) for tfont32
    tft.o(i.LCD_ShowFloatNum1) refers to fmul.o(.text) for __aeabi_fmul
    tft.o(i.LCD_ShowFloatNum1) refers to ffixui.o(.text) for __aeabi_f2uiz
    tft.o(i.LCD_ShowFloatNum1) refers to tft.o(i.mypow) for mypow
    tft.o(i.LCD_ShowFloatNum1) refers to tft.o(i.LCD_ShowChar) for LCD_ShowChar
    tft.o(i.LCD_ShowIntNum) refers to tft.o(i.mypow) for mypow
    tft.o(i.LCD_ShowIntNum) refers to tft.o(i.LCD_ShowChar) for LCD_ShowChar
    tft.o(i.LCD_ShowPicture) refers to tft.o(i.LCD_Address_Set) for LCD_Address_Set
    tft.o(i.LCD_ShowPicture) refers to tft.o(i.MYDMA_Config) for MYDMA_Config
    tft.o(i.LCD_ShowPicture) refers to stm32f10x_spi.o(i.SPI_I2S_DMACmd) for SPI_I2S_DMACmd
    tft.o(i.LCD_ShowPicture) refers to tft.o(i.MYDMA_Enable) for MYDMA_Enable
    tft.o(i.LCD_ShowPicture) refers to stm32f10x_dma.o(i.DMA_GetFlagStatus) for DMA_GetFlagStatus
    tft.o(i.LCD_ShowPicture) refers to stm32f10x_dma.o(i.DMA_ClearFlag) for DMA_ClearFlag
    tft.o(i.LCD_ShowString) refers to tft.o(i.LCD_ShowChar) for LCD_ShowChar
    tft.o(i.LCD_WR_DATA) refers to tft.o(i.LCD_Writ_Bus) for LCD_Writ_Bus
    tft.o(i.LCD_WR_DATA8) refers to tft.o(i.LCD_Writ_Bus) for LCD_Writ_Bus
    tft.o(i.LCD_WR_REG) refers to stm32f10x_gpio.o(i.GPIO_ResetBits) for GPIO_ResetBits
    tft.o(i.LCD_WR_REG) refers to tft.o(i.LCD_Writ_Bus) for LCD_Writ_Bus
    tft.o(i.LCD_WR_REG) refers to stm32f10x_gpio.o(i.GPIO_SetBits) for GPIO_SetBits
    tft.o(i.LCD_Writ_Bus) refers to stm32f10x_spi.o(i.SPI_I2S_GetFlagStatus) for SPI_I2S_GetFlagStatus
    tft.o(i.LCD_Writ_Bus) refers to stm32f10x_spi.o(i.SPI_I2S_SendData) for SPI_I2S_SendData
    tft.o(i.LCD_Writ_Bus) refers to delay.o(i.delay_us) for delay_us
    tft.o(i.MYDMA_Config) refers to stm32f10x_rcc.o(i.RCC_AHBPeriphClockCmd) for RCC_AHBPeriphClockCmd
    tft.o(i.MYDMA_Config) refers to stm32f10x_dma.o(i.DMA_DeInit) for DMA_DeInit
    tft.o(i.MYDMA_Config) refers to stm32f10x_dma.o(i.DMA_Init) for DMA_Init
    tft.o(i.MYDMA_Config) refers to tft.o(.data) for DMA1_MEM_LEN
    tft.o(i.MYDMA_Config) refers to tft.o(.bss) for DMA_InitStructure
    tft.o(i.MYDMA_Config1) refers to stm32f10x_rcc.o(i.RCC_AHBPeriphClockCmd) for RCC_AHBPeriphClockCmd
    tft.o(i.MYDMA_Config1) refers to stm32f10x_dma.o(i.DMA_DeInit) for DMA_DeInit
    tft.o(i.MYDMA_Config1) refers to stm32f10x_dma.o(i.DMA_Init) for DMA_Init
    tft.o(i.MYDMA_Config1) refers to tft.o(.data) for DMA1_MEM_LEN
    tft.o(i.MYDMA_Config1) refers to tft.o(.bss) for DMA_InitStructure
    tft.o(i.MYDMA_Enable) refers to stm32f10x_dma.o(i.DMA_Cmd) for DMA_Cmd
    tft.o(i.MYDMA_Enable) refers to stm32f10x_dma.o(i.DMA_SetCurrDataCounter) for DMA_SetCurrDataCounter
    tft.o(i.MYDMA_Enable) refers to tft.o(.data) for DMA1_MEM_LEN
    tft.o(i.TFT_SPI_Init) refers to stm32f10x_rcc.o(i.RCC_APB2PeriphClockCmd) for RCC_APB2PeriphClockCmd
    tft.o(i.TFT_SPI_Init) refers to stm32f10x_rcc.o(i.RCC_APB1PeriphClockCmd) for RCC_APB1PeriphClockCmd
    tft.o(i.TFT_SPI_Init) refers to stm32f10x_gpio.o(i.GPIO_Init) for GPIO_Init
    tft.o(i.TFT_SPI_Init) refers to stm32f10x_gpio.o(i.GPIO_SetBits) for GPIO_SetBits
    tft.o(i.TFT_SPI_Init) refers to stm32f10x_spi.o(i.SPI_Init) for SPI_Init
    tft.o(i.TFT_SPI_Init) refers to stm32f10x_spi.o(i.SPI_Cmd) for SPI_Cmd
    tft.o(i.TFT_SPI_Init) refers to delay.o(i.delay_ms) for delay_ms
    w25q64.o(i.SPI1_ReadWriteByte) refers to stm32f10x_spi.o(i.SPI_I2S_GetFlagStatus) for SPI_I2S_GetFlagStatus
    w25q64.o(i.SPI1_ReadWriteByte) refers to stm32f10x_spi.o(i.SPI_I2S_SendData) for SPI_I2S_SendData
    w25q64.o(i.SPI1_ReadWriteByte) refers to stm32f10x_spi.o(i.SPI_I2S_ReceiveData) for SPI_I2S_ReceiveData
    w25q64.o(i.SPI1_SetSpeed) refers to stm32f10x_spi.o(i.SPI_Cmd) for SPI_Cmd
    w25q64.o(i.W25QXX_Erase_Chip) refers to w25q64.o(i.W25QXX_Write_Enable) for W25QXX_Write_Enable
    w25q64.o(i.W25QXX_Erase_Chip) refers to w25q64.o(i.W25QXX_Wait_Busy) for W25QXX_Wait_Busy
    w25q64.o(i.W25QXX_Erase_Chip) refers to w25q64.o(i.SPI1_ReadWriteByte) for SPI1_ReadWriteByte
    w25q64.o(i.W25QXX_Erase_Sector) refers to printfa.o(i.__0printf) for __2printf
    w25q64.o(i.W25QXX_Erase_Sector) refers to w25q64.o(i.W25QXX_Write_Enable) for W25QXX_Write_Enable
    w25q64.o(i.W25QXX_Erase_Sector) refers to w25q64.o(i.W25QXX_Wait_Busy) for W25QXX_Wait_Busy
    w25q64.o(i.W25QXX_Erase_Sector) refers to w25q64.o(i.SPI1_ReadWriteByte) for SPI1_ReadWriteByte
    w25q64.o(i.W25QXX_PowerDown) refers to w25q64.o(i.SPI1_ReadWriteByte) for SPI1_ReadWriteByte
    w25q64.o(i.W25QXX_PowerDown) refers to delay.o(i.delay_us) for delay_us
    w25q64.o(i.W25QXX_Read) refers to w25q64.o(i.SPI1_ReadWriteByte) for SPI1_ReadWriteByte
    w25q64.o(i.W25QXX_ReadID) refers to w25q64.o(i.SPI1_ReadWriteByte) for SPI1_ReadWriteByte
    w25q64.o(i.W25QXX_ReadSR) refers to w25q64.o(i.SPI1_ReadWriteByte) for SPI1_ReadWriteByte
    w25q64.o(i.W25QXX_WAKEUP) refers to w25q64.o(i.SPI1_ReadWriteByte) for SPI1_ReadWriteByte
    w25q64.o(i.W25QXX_WAKEUP) refers to delay.o(i.delay_us) for delay_us
    w25q64.o(i.W25QXX_Wait_Busy) refers to w25q64.o(i.W25QXX_ReadSR) for W25QXX_ReadSR
    w25q64.o(i.W25QXX_Write) refers to w25q64.o(i.W25QXX_Read) for W25QXX_Read
    w25q64.o(i.W25QXX_Write) refers to w25q64.o(i.W25QXX_Erase_Sector) for W25QXX_Erase_Sector
    w25q64.o(i.W25QXX_Write) refers to w25q64.o(i.W25QXX_Write_NoCheck) for W25QXX_Write_NoCheck
    w25q64.o(i.W25QXX_Write) refers to w25q64.o(.bss) for W25QXX_BUFFER
    w25q64.o(i.W25QXX_Write_Disable) refers to w25q64.o(i.SPI1_ReadWriteByte) for SPI1_ReadWriteByte
    w25q64.o(i.W25QXX_Write_Enable) refers to w25q64.o(i.SPI1_ReadWriteByte) for SPI1_ReadWriteByte
    w25q64.o(i.W25QXX_Write_NoCheck) refers to w25q64.o(i.W25QXX_Write_Page) for W25QXX_Write_Page
    w25q64.o(i.W25QXX_Write_Page) refers to w25q64.o(i.W25QXX_Write_Enable) for W25QXX_Write_Enable
    w25q64.o(i.W25QXX_Write_Page) refers to w25q64.o(i.SPI1_ReadWriteByte) for SPI1_ReadWriteByte
    w25q64.o(i.W25QXX_Write_Page) refers to w25q64.o(i.W25QXX_Wait_Busy) for W25QXX_Wait_Busy
    w25q64.o(i.W25QXX_Write_SR) refers to w25q64.o(i.SPI1_ReadWriteByte) for SPI1_ReadWriteByte
    w25q64.o(i.W25Qxx_SPIAndIO_Init) refers to stm32f10x_rcc.o(i.RCC_APB2PeriphClockCmd) for RCC_APB2PeriphClockCmd
    w25q64.o(i.W25Qxx_SPIAndIO_Init) refers to stm32f10x_gpio.o(i.GPIO_Init) for GPIO_Init
    w25q64.o(i.W25Qxx_SPIAndIO_Init) refers to stm32f10x_gpio.o(i.GPIO_SetBits) for GPIO_SetBits
    w25q64.o(i.W25Qxx_SPIAndIO_Init) refers to stm32f10x_gpio.o(i.GPIO_PinRemapConfig) for GPIO_PinRemapConfig
    w25q64.o(i.W25Qxx_SPIAndIO_Init) refers to stm32f10x_spi.o(i.SPI_Init) for SPI_Init
    w25q64.o(i.W25Qxx_SPIAndIO_Init) refers to stm32f10x_spi.o(i.SPI_Cmd) for SPI_Cmd
    w25q64.o(i.W25Qxx_SPIAndIO_Init) refers to w25q64.o(i.SPI1_ReadWriteByte) for SPI1_ReadWriteByte
    w25q64.o(i.W25Qxx_SPIAndIO_Init) refers to w25q64.o(i.SPI1_SetSpeed) for SPI1_SetSpeed
    sd.o(i.CmdError) refers to stm32f10x_sdio.o(i.SDIO_GetFlagStatus) for SDIO_GetFlagStatus
    sd.o(i.CmdError) refers to stm32f10x_sdio.o(i.SDIO_ClearFlag) for SDIO_ClearFlag
    sd.o(i.CmdResp1Error) refers to stm32f10x_sdio.o(i.SDIO_GetFlagStatus) for SDIO_GetFlagStatus
    sd.o(i.CmdResp1Error) refers to stm32f10x_sdio.o(i.SDIO_ClearFlag) for SDIO_ClearFlag
    sd.o(i.CmdResp2Error) refers to stm32f10x_sdio.o(i.SDIO_ClearFlag) for SDIO_ClearFlag
    sd.o(i.CmdResp2Error) refers to stm32f10x_sdio.o(i.SDIO_GetFlagStatus) for SDIO_GetFlagStatus
    sd.o(i.CmdResp3Error) refers to stm32f10x_sdio.o(i.SDIO_GetFlagStatus) for SDIO_GetFlagStatus
    sd.o(i.CmdResp3Error) refers to stm32f10x_sdio.o(i.SDIO_ClearFlag) for SDIO_ClearFlag
    sd.o(i.CmdResp6Error) refers to stm32f10x_sdio.o(i.SDIO_GetFlagStatus) for SDIO_GetFlagStatus
    sd.o(i.CmdResp6Error) refers to stm32f10x_sdio.o(i.SDIO_ClearFlag) for SDIO_ClearFlag
    sd.o(i.CmdResp7Error) refers to stm32f10x_sdio.o(i.SDIO_ClearFlag) for SDIO_ClearFlag
    sd.o(i.FindSCR) refers to stm32f10x_sdio.o(i.SDIO_SendCommand) for SDIO_SendCommand
    sd.o(i.FindSCR) refers to sd.o(i.CmdResp1Error) for CmdResp1Error
    sd.o(i.FindSCR) refers to stm32f10x_sdio.o(i.SDIO_DataConfig) for SDIO_DataConfig
    sd.o(i.FindSCR) refers to stm32f10x_sdio.o(i.SDIO_GetFlagStatus) for SDIO_GetFlagStatus
    sd.o(i.FindSCR) refers to stm32f10x_sdio.o(i.SDIO_ReadData) for SDIO_ReadData
    sd.o(i.FindSCR) refers to stm32f10x_sdio.o(i.SDIO_ClearFlag) for SDIO_ClearFlag
    sd.o(i.FindSCR) refers to sd.o(.bss) for SDIO_CmdInitStructure
    sd.o(i.FindSCR) refers to sd.o(.data) for RCA
    sd.o(i.IsCardProgramming) refers to stm32f10x_sdio.o(i.SDIO_SendCommand) for SDIO_SendCommand
    sd.o(i.IsCardProgramming) refers to stm32f10x_sdio.o(i.SDIO_GetFlagStatus) for SDIO_GetFlagStatus
    sd.o(i.IsCardProgramming) refers to stm32f10x_sdio.o(i.SDIO_ClearFlag) for SDIO_ClearFlag
    sd.o(i.IsCardProgramming) refers to sd.o(.data) for RCA
    sd.o(i.IsCardProgramming) refers to sd.o(.bss) for SDIO_CmdInitStructure
    sd.o(i.SDEnWideBus) refers to sd.o(i.FindSCR) for FindSCR
    sd.o(i.SDEnWideBus) refers to stm32f10x_sdio.o(i.SDIO_SendCommand) for SDIO_SendCommand
    sd.o(i.SDEnWideBus) refers to sd.o(i.CmdResp1Error) for CmdResp1Error
    sd.o(i.SDEnWideBus) refers to sd.o(.data) for RCA
    sd.o(i.SDEnWideBus) refers to sd.o(.bss) for SDIO_CmdInitStructure
    sd.o(i.SDIO_IRQHandler) refers to sd.o(i.SD_ProcessIRQSrc) for SD_ProcessIRQSrc
    sd.o(i.SD_DMA_Config) refers to stm32f10x_rcc.o(i.RCC_AHBPeriphClockCmd) for RCC_AHBPeriphClockCmd
    sd.o(i.SD_DMA_Config) refers to stm32f10x_dma.o(i.DMA_DeInit) for DMA_DeInit
    sd.o(i.SD_DMA_Config) refers to stm32f10x_dma.o(i.DMA_Cmd) for DMA_Cmd
    sd.o(i.SD_DMA_Config) refers to stm32f10x_dma.o(i.DMA_Init) for DMA_Init
    sd.o(i.SD_EnableWideBusOperation) refers to sd.o(i.SDEnWideBus) for SDEnWideBus
    sd.o(i.SD_EnableWideBusOperation) refers to sd.o(.data) for CardType
    sd.o(i.SD_GetCardInfo) refers to sd.o(.data) for CardType
    sd.o(i.SD_GetCardInfo) refers to sd.o(.bss) for CSD_Tab
    sd.o(i.SD_GetState) refers to sd.o(i.SD_SendStatus) for SD_SendStatus
    sd.o(i.SD_Init) refers to stm32f10x_rcc.o(i.RCC_APB2PeriphClockCmd) for RCC_APB2PeriphClockCmd
    sd.o(i.SD_Init) refers to stm32f10x_rcc.o(i.RCC_AHBPeriphClockCmd) for RCC_AHBPeriphClockCmd
    sd.o(i.SD_Init) refers to stm32f10x_gpio.o(i.GPIO_Init) for GPIO_Init
    sd.o(i.SD_Init) refers to stm32f10x_sdio.o(i.SDIO_DeInit) for SDIO_DeInit
    sd.o(i.SD_Init) refers to misc.o(i.NVIC_Init) for NVIC_Init
    sd.o(i.SD_Init) refers to sd.o(i.SD_PowerON) for SD_PowerON
    sd.o(i.SD_Init) refers to sd.o(i.SD_InitializeCards) for SD_InitializeCards
    sd.o(i.SD_Init) refers to sd.o(i.SD_GetCardInfo) for SD_GetCardInfo
    sd.o(i.SD_Init) refers to sd.o(i.SD_SelectDeselect) for SD_SelectDeselect
    sd.o(i.SD_Init) refers to sd.o(i.SD_EnableWideBusOperation) for SD_EnableWideBusOperation
    sd.o(i.SD_Init) refers to sd.o(i.SDIO_Clock_Set) for SDIO_Clock_Set
    sd.o(i.SD_Init) refers to sd.o(i.SD_SetDeviceMode) for SD_SetDeviceMode
    sd.o(i.SD_Init) refers to sd.o(.bss) for SDCardInfo
    sd.o(i.SD_Init) refers to sd.o(.data) for CardType
    sd.o(i.SD_InitializeCards) refers to stm32f10x_sdio.o(i.SDIO_GetPowerState) for SDIO_GetPowerState
    sd.o(i.SD_InitializeCards) refers to stm32f10x_sdio.o(i.SDIO_SendCommand) for SDIO_SendCommand
    sd.o(i.SD_InitializeCards) refers to sd.o(i.CmdResp2Error) for CmdResp2Error
    sd.o(i.SD_InitializeCards) refers to sd.o(i.CmdResp6Error) for CmdResp6Error
    sd.o(i.SD_InitializeCards) refers to sd.o(.data) for CardType
    sd.o(i.SD_InitializeCards) refers to sd.o(.bss) for SDIO_CmdInitStructure
    sd.o(i.SD_PowerOFF) refers to stm32f10x_sdio.o(i.SDIO_SetPowerState) for SDIO_SetPowerState
    sd.o(i.SD_PowerON) refers to stm32f10x_sdio.o(i.SDIO_Init) for SDIO_Init
    sd.o(i.SD_PowerON) refers to stm32f10x_sdio.o(i.SDIO_SetPowerState) for SDIO_SetPowerState
    sd.o(i.SD_PowerON) refers to stm32f10x_sdio.o(i.SDIO_ClockCmd) for SDIO_ClockCmd
    sd.o(i.SD_PowerON) refers to stm32f10x_sdio.o(i.SDIO_SendCommand) for SDIO_SendCommand
    sd.o(i.SD_PowerON) refers to sd.o(i.CmdError) for CmdError
    sd.o(i.SD_PowerON) refers to sd.o(i.CmdResp7Error) for CmdResp7Error
    sd.o(i.SD_PowerON) refers to sd.o(i.CmdResp1Error) for CmdResp1Error
    sd.o(i.SD_PowerON) refers to sd.o(i.CmdResp3Error) for CmdResp3Error
    sd.o(i.SD_PowerON) refers to sd.o(.bss) for SDIO_InitStructure
    sd.o(i.SD_PowerON) refers to sd.o(.data) for CardType
    sd.o(i.SD_ProcessIRQSrc) refers to stm32f10x_sdio.o(i.SDIO_SendCommand) for SDIO_SendCommand
    sd.o(i.SD_ProcessIRQSrc) refers to sd.o(i.CmdResp1Error) for CmdResp1Error
    sd.o(i.SD_ProcessIRQSrc) refers to stm32f10x_sdio.o(i.SDIO_GetFlagStatus) for SDIO_GetFlagStatus
    sd.o(i.SD_ProcessIRQSrc) refers to stm32f10x_sdio.o(i.SDIO_ClearFlag) for SDIO_ClearFlag
    sd.o(i.SD_ProcessIRQSrc) refers to sd.o(.data) for StopCondition
    sd.o(i.SD_ProcessIRQSrc) refers to sd.o(.bss) for SDIO_CmdInitStructure
    sd.o(i.SD_ReadBlock) refers to stm32f10x_sdio.o(i.SDIO_DataConfig) for SDIO_DataConfig
    sd.o(i.SD_ReadBlock) refers to sd.o(i.convert_from_bytes_to_power_of_two) for convert_from_bytes_to_power_of_two
    sd.o(i.SD_ReadBlock) refers to stm32f10x_sdio.o(i.SDIO_SendCommand) for SDIO_SendCommand
    sd.o(i.SD_ReadBlock) refers to sd.o(i.CmdResp1Error) for CmdResp1Error
    sd.o(i.SD_ReadBlock) refers to sys.o(i.INTX_DISABLE) for INTX_DISABLE
    sd.o(i.SD_ReadBlock) refers to stm32f10x_sdio.o(i.SDIO_GetFlagStatus) for SDIO_GetFlagStatus
    sd.o(i.SD_ReadBlock) refers to stm32f10x_sdio.o(i.SDIO_ClearFlag) for SDIO_ClearFlag
    sd.o(i.SD_ReadBlock) refers to stm32f10x_sdio.o(i.SDIO_ReadData) for SDIO_ReadData
    sd.o(i.SD_ReadBlock) refers to sys.o(i.INTX_ENABLE) for INTX_ENABLE
    sd.o(i.SD_ReadBlock) refers to sd.o(i.SD_DMA_Config) for SD_DMA_Config
    sd.o(i.SD_ReadBlock) refers to stm32f10x_sdio.o(i.SDIO_DMACmd) for SDIO_DMACmd
    sd.o(i.SD_ReadBlock) refers to sd.o(.data) for CardType
    sd.o(i.SD_ReadBlock) refers to sd.o(.bss) for SDIO_DataInitStructure
    sd.o(i.SD_ReadDisk) refers to sd.o(i.SD_ReadBlock) for SD_ReadBlock
    sd.o(i.SD_ReadDisk) refers to memcpya.o(.text) for __aeabi_memcpy
    sd.o(i.SD_ReadDisk) refers to sd.o(i.SD_ReadMultiBlocks) for SD_ReadMultiBlocks
    sd.o(i.SD_ReadDisk) refers to sd.o(.bss) for SDIO_DATA_BUFFER
    sd.o(i.SD_ReadMultiBlocks) refers to stm32f10x_sdio.o(i.SDIO_DataConfig) for SDIO_DataConfig
    sd.o(i.SD_ReadMultiBlocks) refers to sd.o(i.convert_from_bytes_to_power_of_two) for convert_from_bytes_to_power_of_two
    sd.o(i.SD_ReadMultiBlocks) refers to stm32f10x_sdio.o(i.SDIO_SendCommand) for SDIO_SendCommand
    sd.o(i.SD_ReadMultiBlocks) refers to sd.o(i.CmdResp1Error) for CmdResp1Error
    sd.o(i.SD_ReadMultiBlocks) refers to sys.o(i.INTX_DISABLE) for INTX_DISABLE
    sd.o(i.SD_ReadMultiBlocks) refers to stm32f10x_sdio.o(i.SDIO_GetFlagStatus) for SDIO_GetFlagStatus
    sd.o(i.SD_ReadMultiBlocks) refers to stm32f10x_sdio.o(i.SDIO_ClearFlag) for SDIO_ClearFlag
    sd.o(i.SD_ReadMultiBlocks) refers to stm32f10x_sdio.o(i.SDIO_ReadData) for SDIO_ReadData
    sd.o(i.SD_ReadMultiBlocks) refers to sys.o(i.INTX_ENABLE) for INTX_ENABLE
    sd.o(i.SD_ReadMultiBlocks) refers to sd.o(i.SD_DMA_Config) for SD_DMA_Config
    sd.o(i.SD_ReadMultiBlocks) refers to sd.o(.data) for tempbuff
    sd.o(i.SD_ReadMultiBlocks) refers to sd.o(.bss) for SDIO_DataInitStructure
    sd.o(i.SD_SelectDeselect) refers to stm32f10x_sdio.o(i.SDIO_SendCommand) for SDIO_SendCommand
    sd.o(i.SD_SelectDeselect) refers to sd.o(i.CmdResp1Error) for CmdResp1Error
    sd.o(i.SD_SelectDeselect) refers to sd.o(.bss) for SDIO_CmdInitStructure
    sd.o(i.SD_SendStatus) refers to stm32f10x_sdio.o(i.SDIO_SendCommand) for SDIO_SendCommand
    sd.o(i.SD_SendStatus) refers to sd.o(i.CmdResp1Error) for CmdResp1Error
    sd.o(i.SD_SendStatus) refers to sd.o(.data) for RCA
    sd.o(i.SD_SendStatus) refers to sd.o(.bss) for SDIO_CmdInitStructure
    sd.o(i.SD_SetDeviceMode) refers to sd.o(.data) for DeviceMode
    sd.o(i.SD_WriteBlock) refers to stm32f10x_sdio.o(i.SDIO_DataConfig) for SDIO_DataConfig
    sd.o(i.SD_WriteBlock) refers to sd.o(i.convert_from_bytes_to_power_of_two) for convert_from_bytes_to_power_of_two
    sd.o(i.SD_WriteBlock) refers to stm32f10x_sdio.o(i.SDIO_SendCommand) for SDIO_SendCommand
    sd.o(i.SD_WriteBlock) refers to sd.o(i.CmdResp1Error) for CmdResp1Error
    sd.o(i.SD_WriteBlock) refers to sys.o(i.INTX_DISABLE) for INTX_DISABLE
    sd.o(i.SD_WriteBlock) refers to stm32f10x_sdio.o(i.SDIO_GetFlagStatus) for SDIO_GetFlagStatus
    sd.o(i.SD_WriteBlock) refers to stm32f10x_sdio.o(i.SDIO_WriteData) for SDIO_WriteData
    sd.o(i.SD_WriteBlock) refers to stm32f10x_sdio.o(i.SDIO_ClearFlag) for SDIO_ClearFlag
    sd.o(i.SD_WriteBlock) refers to sys.o(i.INTX_ENABLE) for INTX_ENABLE
    sd.o(i.SD_WriteBlock) refers to sd.o(i.SD_DMA_Config) for SD_DMA_Config
    sd.o(i.SD_WriteBlock) refers to sd.o(i.SD_Init) for SD_Init
    sd.o(i.SD_WriteBlock) refers to sd.o(i.IsCardProgramming) for IsCardProgramming
    sd.o(i.SD_WriteBlock) refers to sd.o(.bss) for SDIO_DataInitStructure
    sd.o(i.SD_WriteBlock) refers to sd.o(.data) for CardType
    sd.o(i.SD_WriteDisk) refers to memcpya.o(.text) for __aeabi_memcpy
    sd.o(i.SD_WriteDisk) refers to sd.o(i.SD_WriteBlock) for SD_WriteBlock
    sd.o(i.SD_WriteDisk) refers to sd.o(i.SD_WriteMultiBlocks) for SD_WriteMultiBlocks
    sd.o(i.SD_WriteDisk) refers to sd.o(.bss) for SDIO_DATA_BUFFER
    sd.o(i.SD_WriteMultiBlocks) refers to stm32f10x_sdio.o(i.SDIO_DataConfig) for SDIO_DataConfig
    sd.o(i.SD_WriteMultiBlocks) refers to sd.o(i.convert_from_bytes_to_power_of_two) for convert_from_bytes_to_power_of_two
    sd.o(i.SD_WriteMultiBlocks) refers to stm32f10x_sdio.o(i.SDIO_SendCommand) for SDIO_SendCommand
    sd.o(i.SD_WriteMultiBlocks) refers to sd.o(i.CmdResp1Error) for CmdResp1Error
    sd.o(i.SD_WriteMultiBlocks) refers to sys.o(i.INTX_DISABLE) for INTX_DISABLE
    sd.o(i.SD_WriteMultiBlocks) refers to stm32f10x_sdio.o(i.SDIO_WriteData) for SDIO_WriteData
    sd.o(i.SD_WriteMultiBlocks) refers to stm32f10x_sdio.o(i.SDIO_GetFlagStatus) for SDIO_GetFlagStatus
    sd.o(i.SD_WriteMultiBlocks) refers to stm32f10x_sdio.o(i.SDIO_ClearFlag) for SDIO_ClearFlag
    sd.o(i.SD_WriteMultiBlocks) refers to sys.o(i.INTX_ENABLE) for INTX_ENABLE
    sd.o(i.SD_WriteMultiBlocks) refers to sd.o(i.SD_DMA_Config) for SD_DMA_Config
    sd.o(i.SD_WriteMultiBlocks) refers to sd.o(i.SD_Init) for SD_Init
    sd.o(i.SD_WriteMultiBlocks) refers to sd.o(i.IsCardProgramming) for IsCardProgramming
    sd.o(i.SD_WriteMultiBlocks) refers to sd.o(.bss) for SDIO_DataInitStructure
    sd.o(i.SD_WriteMultiBlocks) refers to sd.o(.data) for CardType
    malloc.o(i.my_mem_free) refers to malloc.o(.data) for mallco_dev
    malloc.o(i.my_mem_free) refers to malloc.o(.constdata) for memsize
    malloc.o(i.my_mem_init) refers to malloc.o(i.mymemset) for mymemset
    malloc.o(i.my_mem_init) refers to malloc.o(.constdata) for memtblsize
    malloc.o(i.my_mem_init) refers to malloc.o(.data) for mallco_dev
    malloc.o(i.my_mem_malloc) refers to malloc.o(.data) for mallco_dev
    malloc.o(i.my_mem_malloc) refers to malloc.o(.constdata) for memblksize
    malloc.o(i.my_mem_perused) refers to malloc.o(.data) for mallco_dev
    malloc.o(i.my_mem_perused) refers to malloc.o(.constdata) for memtblsize
    malloc.o(i.myfree) refers to malloc.o(i.my_mem_free) for my_mem_free
    malloc.o(i.myfree) refers to malloc.o(.data) for mallco_dev
    malloc.o(i.mymalloc) refers to malloc.o(i.my_mem_malloc) for my_mem_malloc
    malloc.o(i.mymalloc) refers to malloc.o(.data) for mallco_dev
    malloc.o(i.myrealloc) refers to malloc.o(i.my_mem_malloc) for my_mem_malloc
    malloc.o(i.myrealloc) refers to malloc.o(i.mymemcpy) for mymemcpy
    malloc.o(i.myrealloc) refers to malloc.o(i.myfree) for myfree
    malloc.o(i.myrealloc) refers to malloc.o(.data) for mallco_dev
    malloc.o(.data) refers to malloc.o(i.my_mem_init) for my_mem_init
    malloc.o(.data) refers to malloc.o(i.my_mem_perused) for my_mem_perused
    malloc.o(.data) refers to malloc.o(.bss) for mem1base
    malloc.o(.data) refers to malloc.o(.ARM.__AT_0x68000000) for mem2base
    malloc.o(.data) refers to malloc.o(.ARM.__AT_0x68000020) for mem2mapbase
    interface.o(i.Load_Animation) refers to tft.o(i.LCD_Fill) for LCD_Fill
    interface.o(i.Load_Animation) refers to tft.o(i.LCD_ShowString) for LCD_ShowString
    interface.o(i.Load_Animation) refers to tft.o(i.LCD_DrawRectangle) for LCD_DrawRectangle
    interface.o(i.Load_Animation) refers to tft.o(i.LCD_DrawLine) for LCD_DrawLine
    interface.o(i.Load_Animation) refers to delay.o(i.delay_ms) for delay_ms
    interface.o(i.Load_Animation) refers to interface.o(i.Show_Menu_All) for Show_Menu_All
    interface.o(i.Load_Animation) refers to interface.o(.data) for Main_directory
    interface.o(i.SD_Casd_InterFace) refers to tft.o(i.LCD_Fill) for LCD_Fill
    interface.o(i.SD_Casd_InterFace) refers to interface.o(i.Show_Menu_All) for Show_Menu_All
    interface.o(i.SD_Casd_InterFace) refers to sd_iface.o(i.SD_IFace_information) for SD_IFace_information
    interface.o(i.SD_Casd_InterFace) refers to sd_iface.o(i.SD_TXET_IFace) for SD_TXET_IFace
    interface.o(i.SD_Casd_InterFace) refers to sd_iface.o(i.SD_Picture_IFace) for SD_Picture_IFace
    interface.o(i.SD_Casd_InterFace) refers to interface.o(i.User_Main_InterFace) for User_Main_InterFace
    interface.o(i.SD_Casd_InterFace) refers to interface.o(.data) for IF_SD_Spam_Flag
    interface.o(i.SD_Casd_InterFace) refers to key.o(.data) for KEY_Flag
    interface.o(i.Show_Menu_All) refers to interface.o(i.Show_Menu_One) for Show_Menu_One
    interface.o(i.Show_Menu_One) refers to tft.o(i.LCD_ShowString) for LCD_ShowString
    interface.o(i.User_Main_InterFace) refers to adc.o(i.Get_Temprate) for Get_Temprate
    interface.o(i.User_Main_InterFace) refers to fflti.o(.text) for __aeabi_i2f
    interface.o(i.User_Main_InterFace) refers to fdiv.o(.text) for __aeabi_fdiv
    interface.o(i.User_Main_InterFace) refers to f2d.o(.text) for __aeabi_f2d
    interface.o(i.User_Main_InterFace) refers to printfa.o(i.__0sprintf) for __2sprintf
    interface.o(i.User_Main_InterFace) refers to tft.o(i.LCD_ShowString) for LCD_ShowString
    interface.o(i.User_Main_InterFace) refers to power.o(i.IP5328P_BatCurrent) for IP5328P_BatCurrent
    interface.o(i.User_Main_InterFace) refers to power.o(i.IP5328P_BatVoltage) for IP5328P_BatVoltage
    interface.o(i.User_Main_InterFace) refers to tft.o(i.LCD_Fill) for LCD_Fill
    interface.o(i.User_Main_InterFace) refers to interface.o(i.Show_Menu_All) for Show_Menu_All
    interface.o(i.User_Main_InterFace) refers to interface.o(i.SD_Casd_InterFace) for SD_Casd_InterFace
    interface.o(i.User_Main_InterFace) refers to interface.o(i.User_Modules_InterFace) for User_Modules_InterFace
    interface.o(i.User_Main_InterFace) refers to interface.o(.bss) for Debug_buf
    interface.o(i.User_Main_InterFace) refers to interface.o(.data) for IF_Main_Spam_Flag
    interface.o(i.User_Main_InterFace) refers to key.o(.data) for KEY_Flag
    interface.o(i.User_Modules_InterFace) refers to tft.o(i.LCD_Fill) for LCD_Fill
    interface.o(i.User_Modules_InterFace) refers to interface.o(i.Show_Menu_All) for Show_Menu_All
    interface.o(i.User_Modules_InterFace) refers to interface.o(i.User_Main_InterFace) for User_Main_InterFace
    interface.o(i.User_Modules_InterFace) refers to interface.o(.data) for IF_Modules_Spam_Flag
    interface.o(i.User_Modules_InterFace) refers to key.o(.data) for KEY_Flag
    interface.o(.data) refers to interface.o(.conststring) for .conststring
    sd_iface.o(i.SD_IFace_information) refers to tft.o(i.LCD_Fill) for LCD_Fill
    sd_iface.o(i.SD_IFace_information) refers to tft.o(i.LCDDebug) for LCDDebug
    sd_iface.o(i.SD_IFace_information) refers to delay.o(i.delay_ms) for delay_ms
    sd_iface.o(i.SD_IFace_information) refers to exfuns.o(i.exf_getfree) for exf_getfree
    sd_iface.o(i.SD_IFace_information) refers to printfa.o(i.__0sprintf) for __2sprintf
    sd_iface.o(i.SD_IFace_information) refers to tft.o(i.LCD_ShowString) for LCD_ShowString
    sd_iface.o(i.SD_IFace_information) refers to interface.o(i.SD_Casd_InterFace) for SD_Casd_InterFace
    sd_iface.o(i.SD_IFace_information) refers to sd_iface.o(.data) for SD_Information_Spam_Flag
    sd_iface.o(i.SD_IFace_information) refers to key.o(.data) for KEY_Flag
    sd_iface.o(i.SD_IFace_information) refers to interface.o(.data) for InterFace_Two_Flag
    sd_iface.o(i.SD_Picture_IFace) refers to tft.o(i.LCD_Fill) for LCD_Fill
    sd_iface.o(i.SD_Picture_IFace) refers to printfa.o(i.__0printf) for __2printf
    sd_iface.o(i.SD_Picture_IFace) refers to text.o(i.Show_Str) for Show_Str
    sd_iface.o(i.SD_Picture_IFace) refers to delay.o(i.delay_ms) for delay_ms
    sd_iface.o(i.SD_Picture_IFace) refers to ff.o(i.f_opendir) for f_opendir
    sd_iface.o(i.SD_Picture_IFace) refers to user_fat.o(i.pic_get_tnum) for pic_get_tnum
    sd_iface.o(i.SD_Picture_IFace) refers to malloc.o(i.mymalloc) for mymalloc
    sd_iface.o(i.SD_Picture_IFace) refers to ff.o(i.f_readdir) for f_readdir
    sd_iface.o(i.SD_Picture_IFace) refers to exfuns.o(i.f_typetell) for f_typetell
    sd_iface.o(i.SD_Picture_IFace) refers to piclib.o(i.piclib_init) for piclib_init
    sd_iface.o(i.SD_Picture_IFace) refers to ff.o(i.dir_sdi) for dir_sdi
    sd_iface.o(i.SD_Picture_IFace) refers to strcpy.o(.text) for strcpy
    sd_iface.o(i.SD_Picture_IFace) refers to strcat.o(.text) for strcat
    sd_iface.o(i.SD_Picture_IFace) refers to piclib.o(i.ai_load_picfile) for ai_load_picfile
    sd_iface.o(i.SD_Picture_IFace) refers to malloc.o(i.myfree) for myfree
    sd_iface.o(i.SD_Picture_IFace) refers to interface.o(i.SD_Casd_InterFace) for SD_Casd_InterFace
    sd_iface.o(i.SD_Picture_IFace) refers to sd_iface.o(.data) for SD_Picture_Spam_Flag
    sd_iface.o(i.SD_Picture_IFace) refers to key.o(.data) for KEY_Flag
    sd_iface.o(i.SD_Picture_IFace) refers to interface.o(.data) for InterFace_Two_Flag
    sd_iface.o(i.SD_TXET_IFace) refers to tft.o(i.LCD_Fill) for LCD_Fill
    sd_iface.o(i.SD_TXET_IFace) refers to text.o(i.Show_Str) for Show_Str
    sd_iface.o(i.SD_TXET_IFace) refers to interface.o(i.SD_Casd_InterFace) for SD_Casd_InterFace
    sd_iface.o(i.SD_TXET_IFace) refers to sd_iface.o(.data) for SD_TXET_Spam_Flag
    sd_iface.o(i.SD_TXET_IFace) refers to key.o(.data) for KEY_Flag
    sd_iface.o(i.SD_TXET_IFace) refers to interface.o(.data) for InterFace_Two_Flag
    adc.o(i.Get_Temprate) refers to adc.o(i.T_Get_Adc_Average) for T_Get_Adc_Average
    adc.o(i.Get_Temprate) refers to ffltui.o(.text) for __aeabi_ui2f
    adc.o(i.Get_Temprate) refers to f2d.o(.text) for __aeabi_f2d
    adc.o(i.Get_Temprate) refers to dmul.o(.text) for __aeabi_dmul
    adc.o(i.Get_Temprate) refers to dadd.o(.text) for __aeabi_dsub
    adc.o(i.Get_Temprate) refers to ddiv.o(.text) for __aeabi_ddiv
    adc.o(i.Get_Temprate) refers to dfixi.o(.text) for __aeabi_d2iz
    adc.o(i.MCU_Temperature_ADC_Init) refers to stm32f10x_rcc.o(i.RCC_APB2PeriphClockCmd) for RCC_APB2PeriphClockCmd
    adc.o(i.MCU_Temperature_ADC_Init) refers to stm32f10x_rcc.o(i.RCC_ADCCLKConfig) for RCC_ADCCLKConfig
    adc.o(i.MCU_Temperature_ADC_Init) refers to stm32f10x_adc.o(i.ADC_DeInit) for ADC_DeInit
    adc.o(i.MCU_Temperature_ADC_Init) refers to stm32f10x_adc.o(i.ADC_Init) for ADC_Init
    adc.o(i.MCU_Temperature_ADC_Init) refers to stm32f10x_adc.o(i.ADC_TempSensorVrefintCmd) for ADC_TempSensorVrefintCmd
    adc.o(i.MCU_Temperature_ADC_Init) refers to stm32f10x_adc.o(i.ADC_Cmd) for ADC_Cmd
    adc.o(i.MCU_Temperature_ADC_Init) refers to stm32f10x_adc.o(i.ADC_ResetCalibration) for ADC_ResetCalibration
    adc.o(i.MCU_Temperature_ADC_Init) refers to stm32f10x_adc.o(i.ADC_GetResetCalibrationStatus) for ADC_GetResetCalibrationStatus
    adc.o(i.MCU_Temperature_ADC_Init) refers to stm32f10x_adc.o(i.ADC_StartCalibration) for ADC_StartCalibration
    adc.o(i.MCU_Temperature_ADC_Init) refers to stm32f10x_adc.o(i.ADC_GetCalibrationStatus) for ADC_GetCalibrationStatus
    adc.o(i.T_Get_Adc) refers to stm32f10x_adc.o(i.ADC_RegularChannelConfig) for ADC_RegularChannelConfig
    adc.o(i.T_Get_Adc) refers to stm32f10x_adc.o(i.ADC_SoftwareStartConvCmd) for ADC_SoftwareStartConvCmd
    adc.o(i.T_Get_Adc) refers to stm32f10x_adc.o(i.ADC_GetFlagStatus) for ADC_GetFlagStatus
    adc.o(i.T_Get_Adc) refers to stm32f10x_adc.o(i.ADC_GetConversionValue) for ADC_GetConversionValue
    adc.o(i.T_Get_Adc_Average) refers to adc.o(i.T_Get_Adc) for T_Get_Adc
    adc.o(i.T_Get_Adc_Average) refers to delay.o(i.delay_ms) for delay_ms
    power.o(i.IIC_ReceiveByte) refers to power.o(i.SDA_IN) for SDA_IN
    power.o(i.IIC_ReceiveByte) refers to power.o(i.IP5328_delay) for IP5328_delay
    power.o(i.IIC_ReceiveByte) refers to stm32f10x_gpio.o(i.GPIO_ReadInputDataBit) for GPIO_ReadInputDataBit
    power.o(i.IIC_ReceiveByte) refers to power.o(i.SDA_OUT) for SDA_OUT
    power.o(i.IIC_SendACK) refers to power.o(i.SDA_OUT) for SDA_OUT
    power.o(i.IIC_SendACK) refers to power.o(i.IP5328_delay) for IP5328_delay
    power.o(i.IIC_SendByte) refers to power.o(i.IP5328_delay) for IP5328_delay
    power.o(i.IIC_SendNoAck) refers to power.o(i.SDA_OUT) for SDA_OUT
    power.o(i.IIC_SendNoAck) refers to power.o(i.IP5328_delay) for IP5328_delay
    power.o(i.IIC_Start) refers to power.o(i.SDA_OUT) for SDA_OUT
    power.o(i.IIC_Start) refers to power.o(i.IP5328_delay) for IP5328_delay
    power.o(i.IIC_Stop) refers to power.o(i.SDA_OUT) for SDA_OUT
    power.o(i.IIC_Stop) refers to power.o(i.IP5328_delay) for IP5328_delay
    power.o(i.IIC_WaitAck) refers to power.o(i.SDA_IN) for SDA_IN
    power.o(i.IIC_WaitAck) refers to delay.o(i.delay_us) for delay_us
    power.o(i.IIC_WaitAck) refers to power.o(i.IP5328_delay) for IP5328_delay
    power.o(i.IIC_WaitAck) refers to power.o(i.IIC_Stop) for IIC_Stop
    power.o(i.IIC_WaitAck) refers to stm32f10x_gpio.o(i.GPIO_ReadInputDataBit) for GPIO_ReadInputDataBit
    power.o(i.IIC_WaitAck) refers to power.o(i.SDA_OUT) for SDA_OUT
    power.o(i.IP5328P_BAT_LOW) refers to power.o(i.IP5328P_Write) for IP5328P_Write
    power.o(i.IP5328P_BOOST) refers to power.o(i.IP5328P_Read) for IP5328P_Read
    power.o(i.IP5328P_BatCurrent) refers to power.o(i.IP5328P_Read) for IP5328P_Read
    power.o(i.IP5328P_BatCurrent) refers to fflti.o(.text) for __aeabi_i2f
    power.o(i.IP5328P_BatCurrent) refers to fadd.o(.text) for __aeabi_fadd
    power.o(i.IP5328P_BatCurrent) refers to cfrcmple.o(.text) for __aeabi_cfrcmple
    power.o(i.IP5328P_BatCurrent) refers to f2d.o(.text) for __aeabi_f2d
    power.o(i.IP5328P_BatCurrent) refers to dmul.o(.text) for __aeabi_dmul
    power.o(i.IP5328P_BatCurrent) refers to d2f.o(.text) for __aeabi_d2f
    power.o(i.IP5328P_BatOCV) refers to power.o(i.IP5328P_Read) for IP5328P_Read
    power.o(i.IP5328P_BatOCV) refers to fflti.o(.text) for __aeabi_i2f
    power.o(i.IP5328P_BatOCV) refers to fadd.o(.text) for __aeabi_fadd
    power.o(i.IP5328P_BatOCV) refers to cfcmple.o(.text) for __aeabi_cfcmpeq
    power.o(i.IP5328P_BatOCV) refers to f2d.o(.text) for __aeabi_f2d
    power.o(i.IP5328P_BatOCV) refers to dmul.o(.text) for __aeabi_dmul
    power.o(i.IP5328P_BatOCV) refers to dadd.o(.text) for __aeabi_dadd
    power.o(i.IP5328P_BatOCV) refers to d2f.o(.text) for __aeabi_d2f
    power.o(i.IP5328P_BatVoltage) refers to power.o(i.IP5328P_Read) for IP5328P_Read
    power.o(i.IP5328P_BatVoltage) refers to fflti.o(.text) for __aeabi_i2f
    power.o(i.IP5328P_BatVoltage) refers to fadd.o(.text) for __aeabi_fadd
    power.o(i.IP5328P_BatVoltage) refers to cfcmple.o(.text) for __aeabi_cfcmpeq
    power.o(i.IP5328P_BatVoltage) refers to f2d.o(.text) for __aeabi_f2d
    power.o(i.IP5328P_BatVoltage) refers to dmul.o(.text) for __aeabi_dmul
    power.o(i.IP5328P_BatVoltage) refers to dadd.o(.text) for __aeabi_dadd
    power.o(i.IP5328P_BatVoltage) refers to d2f.o(.text) for __aeabi_d2f
    power.o(i.IP5328P_DCP_DIG) refers to power.o(i.IP5328P_Read) for IP5328P_Read
    power.o(i.IP5328P_GHG_State) refers to power.o(i.IP5328P_Read) for IP5328P_Read
    power.o(i.IP5328P_KEY_IN) refers to power.o(i.IP5328P_Read) for IP5328P_Read
    power.o(i.IP5328P_MOS_ON) refers to power.o(i.IP5328P_Read) for IP5328P_Read
    power.o(i.IP5328P_OUT1_Current) refers to power.o(i.IP5328P_Read) for IP5328P_Read
    power.o(i.IP5328P_OUT1_Current) refers to fflti.o(.text) for __aeabi_i2f
    power.o(i.IP5328P_OUT1_Current) refers to fadd.o(.text) for __aeabi_fadd
    power.o(i.IP5328P_OUT1_Current) refers to cfrcmple.o(.text) for __aeabi_cfrcmple
    power.o(i.IP5328P_OUT1_Current) refers to f2d.o(.text) for __aeabi_f2d
    power.o(i.IP5328P_OUT1_Current) refers to dmul.o(.text) for __aeabi_dmul
    power.o(i.IP5328P_OUT1_Current) refers to d2f.o(.text) for __aeabi_d2f
    power.o(i.IP5328P_OUT2_Current) refers to power.o(i.IP5328P_Read) for IP5328P_Read
    power.o(i.IP5328P_OUT2_Current) refers to fflti.o(.text) for __aeabi_i2f
    power.o(i.IP5328P_OUT2_Current) refers to fadd.o(.text) for __aeabi_fadd
    power.o(i.IP5328P_OUT2_Current) refers to cfrcmple.o(.text) for __aeabi_cfrcmple
    power.o(i.IP5328P_OUT2_Current) refers to f2d.o(.text) for __aeabi_f2d
    power.o(i.IP5328P_OUT2_Current) refers to dmul.o(.text) for __aeabi_dmul
    power.o(i.IP5328P_OUT2_Current) refers to d2f.o(.text) for __aeabi_d2f
    power.o(i.IP5328P_Power) refers to power.o(i.IP5328P_Read) for IP5328P_Read
    power.o(i.IP5328P_Power) refers to fflti.o(.text) for __aeabi_i2f
    power.o(i.IP5328P_Power) refers to fadd.o(.text) for __aeabi_fadd
    power.o(i.IP5328P_Power) refers to cfcmple.o(.text) for __aeabi_cfcmpeq
    power.o(i.IP5328P_Power) refers to f2d.o(.text) for __aeabi_f2d
    power.o(i.IP5328P_Power) refers to dmul.o(.text) for __aeabi_dmul
    power.o(i.IP5328P_Power) refers to d2f.o(.text) for __aeabi_d2f
    power.o(i.IP5328P_QC_State) refers to power.o(i.IP5328P_Read) for IP5328P_Read
    power.o(i.IP5328P_Read) refers to power.o(i.IIC_Start) for IIC_Start
    power.o(i.IP5328P_Read) refers to power.o(i.IIC_SendByte) for IIC_SendByte
    power.o(i.IP5328P_Read) refers to power.o(i.IIC_WaitAck) for IIC_WaitAck
    power.o(i.IP5328P_Read) refers to power.o(i.IIC_ReceiveByte) for IIC_ReceiveByte
    power.o(i.IP5328P_Read) refers to power.o(i.IIC_SendNoAck) for IIC_SendNoAck
    power.o(i.IP5328P_Read) refers to power.o(i.IIC_Stop) for IIC_Stop
    power.o(i.IP5328P_SYS_CTL14) refers to power.o(i.IP5328P_Write) for IP5328P_Write
    power.o(i.IP5328P_SYS_Status) refers to power.o(i.IP5328P_Read) for IP5328P_Read
    power.o(i.IP5328P_TypeC_Ability) refers to power.o(i.IP5328P_Read) for IP5328P_Read
    power.o(i.IP5328P_TypeC_Current) refers to power.o(i.IP5328P_Read) for IP5328P_Read
    power.o(i.IP5328P_TypeC_Current) refers to fflti.o(.text) for __aeabi_i2f
    power.o(i.IP5328P_TypeC_Current) refers to fadd.o(.text) for __aeabi_fadd
    power.o(i.IP5328P_TypeC_Current) refers to cfrcmple.o(.text) for __aeabi_cfrcmple
    power.o(i.IP5328P_TypeC_Current) refers to f2d.o(.text) for __aeabi_f2d
    power.o(i.IP5328P_TypeC_Current) refers to dmul.o(.text) for __aeabi_dmul
    power.o(i.IP5328P_TypeC_Current) refers to d2f.o(.text) for __aeabi_d2f
    power.o(i.IP5328P_TypeC_Flag) refers to power.o(i.IP5328P_Read) for IP5328P_Read
    power.o(i.IP5328P_VIN_Current) refers to power.o(i.IP5328P_Read) for IP5328P_Read
    power.o(i.IP5328P_VIN_Current) refers to fflti.o(.text) for __aeabi_i2f
    power.o(i.IP5328P_VIN_Current) refers to fadd.o(.text) for __aeabi_fadd
    power.o(i.IP5328P_VIN_Current) refers to cfrcmple.o(.text) for __aeabi_cfrcmple
    power.o(i.IP5328P_VIN_Current) refers to f2d.o(.text) for __aeabi_f2d
    power.o(i.IP5328P_VIN_Current) refers to dmul.o(.text) for __aeabi_dmul
    power.o(i.IP5328P_VIN_Current) refers to d2f.o(.text) for __aeabi_d2f
    power.o(i.IP5328P_VinTypeC_State) refers to power.o(i.IP5328P_Read) for IP5328P_Read
    power.o(i.IP5328P_Write) refers to power.o(i.IIC_Start) for IIC_Start
    power.o(i.IP5328P_Write) refers to power.o(i.IIC_SendByte) for IIC_SendByte
    power.o(i.IP5328P_Write) refers to power.o(i.IIC_WaitAck) for IIC_WaitAck
    power.o(i.IP5328P_Write) refers to power.o(i.IIC_Stop) for IIC_Stop
    power.o(i.IP5328_delay) refers to delay.o(i.delay_us) for delay_us
    power.o(i.Power_Get_Init) refers to stm32f10x_rcc.o(i.RCC_APB2PeriphClockCmd) for RCC_APB2PeriphClockCmd
    power.o(i.Power_Get_Init) refers to stm32f10x_gpio.o(i.GPIO_Init) for GPIO_Init
    power.o(i.SDA_IN) refers to stm32f10x_gpio.o(i.GPIO_Init) for GPIO_Init
    power.o(i.SDA_OUT) refers to stm32f10x_gpio.o(i.GPIO_Init) for GPIO_Init
    delay.o(i.delay_init) refers to misc.o(i.SysTick_CLKSourceConfig) for SysTick_CLKSourceConfig
    delay.o(i.delay_init) refers to system_stm32f10x.o(.data) for SystemCoreClock
    delay.o(i.delay_init) refers to delay.o(.data) for fac_us
    delay.o(i.delay_ms) refers to delay.o(.data) for fac_ms
    delay.o(i.delay_us) refers to delay.o(.data) for fac_us
    usart.o(i.NVIC_Configuration) refers to misc.o(i.NVIC_PriorityGroupConfig) for NVIC_PriorityGroupConfig
    usart.o(i.NVIC_Configuration) refers to misc.o(i.NVIC_Init) for NVIC_Init
    usart.o(i.TIM7_IRQHandler) refers to stm32f10x_tim.o(i.TIM_GetITStatus) for TIM_GetITStatus
    usart.o(i.TIM7_IRQHandler) refers to stm32f10x_tim.o(i.TIM_ClearITPendingBit) for TIM_ClearITPendingBit
    usart.o(i.TIM7_IRQHandler) refers to usart.o(i.TIM7_Set) for TIM7_Set
    usart.o(i.TIM7_IRQHandler) refers to usart.o(.data) for UART4_RX_STA
    usart.o(i.TIM7_Init) refers to usart.o(i.TIM7_NVIC_Config) for TIM7_NVIC_Config
    usart.o(i.TIM7_Init) refers to usart.o(i.TIM7_Mode_Config) for TIM7_Mode_Config
    usart.o(i.TIM7_Mode_Config) refers to stm32f10x_rcc.o(i.RCC_APB1PeriphClockCmd) for RCC_APB1PeriphClockCmd
    usart.o(i.TIM7_Mode_Config) refers to stm32f10x_tim.o(i.TIM_TimeBaseInit) for TIM_TimeBaseInit
    usart.o(i.TIM7_Mode_Config) refers to stm32f10x_tim.o(i.TIM_ClearFlag) for TIM_ClearFlag
    usart.o(i.TIM7_Mode_Config) refers to stm32f10x_tim.o(i.TIM_ITConfig) for TIM_ITConfig
    usart.o(i.TIM7_Mode_Config) refers to stm32f10x_tim.o(i.TIM_Cmd) for TIM_Cmd
    usart.o(i.TIM7_NVIC_Config) refers to misc.o(i.NVIC_PriorityGroupConfig) for NVIC_PriorityGroupConfig
    usart.o(i.TIM7_NVIC_Config) refers to misc.o(i.NVIC_Init) for NVIC_Init
    usart.o(i.TIM7_Set) refers to stm32f10x_tim.o(i.TIM_SetCounter) for TIM_SetCounter
    usart.o(i.TIM7_Set) refers to stm32f10x_tim.o(i.TIM_Cmd) for TIM_Cmd
    usart.o(i.UART4_Config) refers to stm32f10x_rcc.o(i.RCC_APB2PeriphClockCmd) for RCC_APB2PeriphClockCmd
    usart.o(i.UART4_Config) refers to stm32f10x_rcc.o(i.RCC_APB1PeriphClockCmd) for RCC_APB1PeriphClockCmd
    usart.o(i.UART4_Config) refers to stm32f10x_gpio.o(i.GPIO_Init) for GPIO_Init
    usart.o(i.UART4_Config) refers to stm32f10x_usart.o(i.USART_Init) for USART_Init
    usart.o(i.UART4_Config) refers to stm32f10x_usart.o(i.USART_DMACmd) for USART_DMACmd
    usart.o(i.UART4_Config) refers to usart.o(i.UART4_DMA_Config) for UART4_DMA_Config
    usart.o(i.UART4_Config) refers to stm32f10x_usart.o(i.USART_Cmd) for USART_Cmd
    usart.o(i.UART4_Config) refers to usart.o(i.NVIC_Configuration) for NVIC_Configuration
    usart.o(i.UART4_Config) refers to stm32f10x_usart.o(i.USART_ITConfig) for USART_ITConfig
    usart.o(i.UART4_Config) refers to usart.o(i.TIM7_Init) for TIM7_Init
    usart.o(i.UART4_Config) refers to usart.o(i.TIM7_Set) for TIM7_Set
    usart.o(i.UART4_Config) refers to usart.o(.bss) for UART4_TX_BUF
    usart.o(i.UART4_Config) refers to usart.o(.data) for UART4_RX_STA
    usart.o(i.UART4_DMA_Config) refers to stm32f10x_rcc.o(i.RCC_AHBPeriphClockCmd) for RCC_AHBPeriphClockCmd
    usart.o(i.UART4_DMA_Config) refers to stm32f10x_dma.o(i.DMA_DeInit) for DMA_DeInit
    usart.o(i.UART4_DMA_Config) refers to stm32f10x_dma.o(i.DMA_Init) for DMA_Init
    usart.o(i.UART4_DMA_Enable) refers to stm32f10x_dma.o(i.DMA_Cmd) for DMA_Cmd
    usart.o(i.UART4_DMA_Enable) refers to stm32f10x_dma.o(i.DMA_SetCurrDataCounter) for DMA_SetCurrDataCounter
    usart.o(i.UART4_IRQHandler) refers to stm32f10x_usart.o(i.USART_GetITStatus) for USART_GetITStatus
    usart.o(i.UART4_IRQHandler) refers to stm32f10x_usart.o(i.USART_ReceiveData) for USART_ReceiveData
    usart.o(i.UART4_IRQHandler) refers to stm32f10x_tim.o(i.TIM_SetCounter) for TIM_SetCounter
    usart.o(i.UART4_IRQHandler) refers to usart.o(i.TIM7_Set) for TIM7_Set
    usart.o(i.UART4_IRQHandler) refers to usart.o(.data) for UART4_RX_STA
    usart.o(i.UART4_IRQHandler) refers to usart.o(.bss) for UART4_RX_BUF
    usart.o(i.USART1_IRQHandler) refers to stm32f10x_usart.o(i.USART_GetITStatus) for USART_GetITStatus
    usart.o(i.USART1_IRQHandler) refers to stm32f10x_usart.o(i.USART_ReceiveData) for USART_ReceiveData
    usart.o(i.USART1_IRQHandler) refers to usart.o(.data) for USART_RX_STA
    usart.o(i.USART1_IRQHandler) refers to usart.o(.bss) for USART_RX_BUF
    usart.o(i.Uart4_SendByte) refers to stm32f10x_usart.o(i.USART_GetFlagStatus) for USART_GetFlagStatus
    usart.o(i.Uart4_SendString) refers to usart.o(i.Uart4_SendByte) for Uart4_SendByte
    usart.o(i.Uart4_SendString) refers to stm32f10x_usart.o(i.USART_GetFlagStatus) for USART_GetFlagStatus
    usart.o(i.uart_init) refers to stm32f10x_rcc.o(i.RCC_APB2PeriphClockCmd) for RCC_APB2PeriphClockCmd
    usart.o(i.uart_init) refers to stm32f10x_gpio.o(i.GPIO_Init) for GPIO_Init
    usart.o(i.uart_init) refers to misc.o(i.NVIC_Init) for NVIC_Init
    usart.o(i.uart_init) refers to stm32f10x_usart.o(i.USART_Init) for USART_Init
    usart.o(i.uart_init) refers to stm32f10x_usart.o(i.USART_ITConfig) for USART_ITConfig
    usart.o(i.uart_init) refers to stm32f10x_usart.o(i.USART_Cmd) for USART_Cmd
    vl53l0x_i2c.o(i.VL53L0X_i2c_init) refers to stm32f10x_rcc.o(i.RCC_APB2PeriphClockCmd) for RCC_APB2PeriphClockCmd
    vl53l0x_i2c.o(i.VL53L0X_i2c_init) refers to stm32f10x_gpio.o(i.GPIO_Init) for GPIO_Init
    vl53l0x_i2c.o(i.VL53L0X_i2c_init) refers to stm32f10x_gpio.o(i.GPIO_SetBits) for GPIO_SetBits
    vl53l0x_i2c.o(i.VL53L0X_read_byte) refers to vl53l0x_i2c.o(i.VL53L0X_read_multi) for VL53L0X_read_multi
    vl53l0x_i2c.o(i.VL53L0X_read_dword) refers to vl53l0x_i2c.o(i.VL53L0X_read_multi) for VL53L0X_read_multi
    vl53l0x_i2c.o(i.VL53L0X_read_multi) refers to vl53l0x_i2c.o(i.VL_IIC_Read_nByte) for VL_IIC_Read_nByte
    vl53l0x_i2c.o(i.VL53L0X_read_word) refers to vl53l0x_i2c.o(i.VL53L0X_read_multi) for VL53L0X_read_multi
    vl53l0x_i2c.o(i.VL53L0X_write_byte) refers to vl53l0x_i2c.o(i.VL53L0X_write_multi) for VL53L0X_write_multi
    vl53l0x_i2c.o(i.VL53L0X_write_dword) refers to vl53l0x_i2c.o(i.VL53L0X_write_multi) for VL53L0X_write_multi
    vl53l0x_i2c.o(i.VL53L0X_write_multi) refers to vl53l0x_i2c.o(i.VL_IIC_Write_nByte) for VL_IIC_Write_nByte
    vl53l0x_i2c.o(i.VL53L0X_write_word) refers to vl53l0x_i2c.o(i.VL53L0X_write_multi) for VL53L0X_write_multi
    vl53l0x_i2c.o(i.VL_IIC_Ack) refers to vl53l0x_i2c.o(i.VL_SDA_OUT) for VL_SDA_OUT
    vl53l0x_i2c.o(i.VL_IIC_Ack) refers to delay.o(i.delay_us) for delay_us
    vl53l0x_i2c.o(i.VL_IIC_NAck) refers to vl53l0x_i2c.o(i.VL_SDA_OUT) for VL_SDA_OUT
    vl53l0x_i2c.o(i.VL_IIC_NAck) refers to delay.o(i.delay_us) for delay_us
    vl53l0x_i2c.o(i.VL_IIC_Read_1Byte) refers to vl53l0x_i2c.o(i.VL_IIC_Start) for VL_IIC_Start
    vl53l0x_i2c.o(i.VL_IIC_Read_1Byte) refers to vl53l0x_i2c.o(i.VL_IIC_Send_Byte) for VL_IIC_Send_Byte
    vl53l0x_i2c.o(i.VL_IIC_Read_1Byte) refers to vl53l0x_i2c.o(i.VL_IIC_Wait_Ack) for VL_IIC_Wait_Ack
    vl53l0x_i2c.o(i.VL_IIC_Read_1Byte) refers to vl53l0x_i2c.o(i.VL_IIC_Stop) for VL_IIC_Stop
    vl53l0x_i2c.o(i.VL_IIC_Read_1Byte) refers to vl53l0x_i2c.o(i.VL_IIC_Read_Byte) for VL_IIC_Read_Byte
    vl53l0x_i2c.o(i.VL_IIC_Read_Byte) refers to vl53l0x_i2c.o(i.VL_SDA_IN) for VL_SDA_IN
    vl53l0x_i2c.o(i.VL_IIC_Read_Byte) refers to delay.o(i.delay_us) for delay_us
    vl53l0x_i2c.o(i.VL_IIC_Read_Byte) refers to stm32f10x_gpio.o(i.GPIO_ReadInputDataBit) for GPIO_ReadInputDataBit
    vl53l0x_i2c.o(i.VL_IIC_Read_Byte) refers to vl53l0x_i2c.o(i.VL_IIC_NAck) for VL_IIC_NAck
    vl53l0x_i2c.o(i.VL_IIC_Read_Byte) refers to vl53l0x_i2c.o(i.VL_IIC_Ack) for VL_IIC_Ack
    vl53l0x_i2c.o(i.VL_IIC_Read_nByte) refers to vl53l0x_i2c.o(i.VL_IIC_Start) for VL_IIC_Start
    vl53l0x_i2c.o(i.VL_IIC_Read_nByte) refers to vl53l0x_i2c.o(i.VL_IIC_Send_Byte) for VL_IIC_Send_Byte
    vl53l0x_i2c.o(i.VL_IIC_Read_nByte) refers to vl53l0x_i2c.o(i.VL_IIC_Wait_Ack) for VL_IIC_Wait_Ack
    vl53l0x_i2c.o(i.VL_IIC_Read_nByte) refers to vl53l0x_i2c.o(i.VL_IIC_Stop) for VL_IIC_Stop
    vl53l0x_i2c.o(i.VL_IIC_Read_nByte) refers to vl53l0x_i2c.o(i.VL_IIC_Read_Byte) for VL_IIC_Read_Byte
    vl53l0x_i2c.o(i.VL_IIC_Send_Byte) refers to vl53l0x_i2c.o(i.VL_SDA_OUT) for VL_SDA_OUT
    vl53l0x_i2c.o(i.VL_IIC_Send_Byte) refers to delay.o(i.delay_us) for delay_us
    vl53l0x_i2c.o(i.VL_IIC_Start) refers to vl53l0x_i2c.o(i.VL_SDA_OUT) for VL_SDA_OUT
    vl53l0x_i2c.o(i.VL_IIC_Start) refers to delay.o(i.delay_us) for delay_us
    vl53l0x_i2c.o(i.VL_IIC_Stop) refers to vl53l0x_i2c.o(i.VL_SDA_OUT) for VL_SDA_OUT
    vl53l0x_i2c.o(i.VL_IIC_Stop) refers to delay.o(i.delay_us) for delay_us
    vl53l0x_i2c.o(i.VL_IIC_Wait_Ack) refers to vl53l0x_i2c.o(i.VL_SDA_IN) for VL_SDA_IN
    vl53l0x_i2c.o(i.VL_IIC_Wait_Ack) refers to delay.o(i.delay_us) for delay_us
    vl53l0x_i2c.o(i.VL_IIC_Wait_Ack) refers to vl53l0x_i2c.o(i.VL_IIC_Stop) for VL_IIC_Stop
    vl53l0x_i2c.o(i.VL_IIC_Wait_Ack) refers to stm32f10x_gpio.o(i.GPIO_ReadInputDataBit) for GPIO_ReadInputDataBit
    vl53l0x_i2c.o(i.VL_IIC_Write_1Byte) refers to vl53l0x_i2c.o(i.VL_IIC_Start) for VL_IIC_Start
    vl53l0x_i2c.o(i.VL_IIC_Write_1Byte) refers to vl53l0x_i2c.o(i.VL_IIC_Send_Byte) for VL_IIC_Send_Byte
    vl53l0x_i2c.o(i.VL_IIC_Write_1Byte) refers to vl53l0x_i2c.o(i.VL_IIC_Wait_Ack) for VL_IIC_Wait_Ack
    vl53l0x_i2c.o(i.VL_IIC_Write_1Byte) refers to vl53l0x_i2c.o(i.VL_IIC_Stop) for VL_IIC_Stop
    vl53l0x_i2c.o(i.VL_IIC_Write_nByte) refers to vl53l0x_i2c.o(i.VL_IIC_Start) for VL_IIC_Start
    vl53l0x_i2c.o(i.VL_IIC_Write_nByte) refers to vl53l0x_i2c.o(i.VL_IIC_Send_Byte) for VL_IIC_Send_Byte
    vl53l0x_i2c.o(i.VL_IIC_Write_nByte) refers to vl53l0x_i2c.o(i.VL_IIC_Wait_Ack) for VL_IIC_Wait_Ack
    vl53l0x_i2c.o(i.VL_IIC_Write_nByte) refers to vl53l0x_i2c.o(i.VL_IIC_Stop) for VL_IIC_Stop
    vl53l0x_i2c.o(i.VL_SDA_IN) refers to stm32f10x_rcc.o(i.RCC_APB2PeriphClockCmd) for RCC_APB2PeriphClockCmd
    vl53l0x_i2c.o(i.VL_SDA_IN) refers to stm32f10x_gpio.o(i.GPIO_Init) for GPIO_Init
    vl53l0x_i2c.o(i.VL_SDA_OUT) refers to stm32f10x_rcc.o(i.RCC_APB2PeriphClockCmd) for RCC_APB2PeriphClockCmd
    vl53l0x_i2c.o(i.VL_SDA_OUT) refers to stm32f10x_gpio.o(i.GPIO_Init) for GPIO_Init
    vl53l0x_platform.o(i.VL53L0X_RdByte) refers to vl53l0x_i2c.o(i.VL53L0X_read_byte) for VL53L0X_read_byte
    vl53l0x_platform.o(i.VL53L0X_RdDWord) refers to vl53l0x_i2c.o(i.VL53L0X_read_dword) for VL53L0X_read_dword
    vl53l0x_platform.o(i.VL53L0X_RdWord) refers to vl53l0x_i2c.o(i.VL53L0X_read_word) for VL53L0X_read_word
    vl53l0x_platform.o(i.VL53L0X_ReadMulti) refers to vl53l0x_i2c.o(i.VL53L0X_read_multi) for VL53L0X_read_multi
    vl53l0x_platform.o(i.VL53L0X_UpdateByte) refers to vl53l0x_i2c.o(i.VL53L0X_read_byte) for VL53L0X_read_byte
    vl53l0x_platform.o(i.VL53L0X_UpdateByte) refers to vl53l0x_i2c.o(i.VL53L0X_write_byte) for VL53L0X_write_byte
    vl53l0x_platform.o(i.VL53L0X_WrByte) refers to vl53l0x_i2c.o(i.VL53L0X_write_byte) for VL53L0X_write_byte
    vl53l0x_platform.o(i.VL53L0X_WrDWord) refers to vl53l0x_i2c.o(i.VL53L0X_write_dword) for VL53L0X_write_dword
    vl53l0x_platform.o(i.VL53L0X_WrWord) refers to vl53l0x_i2c.o(i.VL53L0X_write_word) for VL53L0X_write_word
    vl53l0x_platform.o(i.VL53L0X_WriteMulti) refers to vl53l0x_i2c.o(i.VL53L0X_write_multi) for VL53L0X_write_multi
    user_fat.o(i.pic_get_tnum) refers to ff.o(i.f_opendir) for f_opendir
    user_fat.o(i.pic_get_tnum) refers to malloc.o(i.mymalloc) for mymalloc
    user_fat.o(i.pic_get_tnum) refers to ff.o(i.f_readdir) for f_readdir
    user_fat.o(i.pic_get_tnum) refers to exfuns.o(i.f_typetell) for f_typetell
    diskio.o(i.disk_initialize) refers to sd.o(i.SD_Init) for SD_Init
    diskio.o(i.disk_initialize) refers to w25q64.o(i.W25Qxx_SPIAndIO_Init) for W25Qxx_SPIAndIO_Init
    diskio.o(i.disk_initialize) refers to delay.o(i.delay_us) for delay_us
    diskio.o(i.disk_initialize) refers to w25q64.o(i.W25QXX_WAKEUP) for W25QXX_WAKEUP
    diskio.o(i.disk_initialize) refers to diskio.o(.data) for FLASH_SECTOR_COUNT
    diskio.o(i.disk_ioctl) refers to ldiv.o(.text) for __aeabi_ldivmod
    diskio.o(i.disk_ioctl) refers to sd.o(.bss) for SDCardInfo
    diskio.o(i.disk_ioctl) refers to diskio.o(.data) for FLASH_SECTOR_COUNT
    diskio.o(i.disk_read) refers to sd.o(i.SD_ReadDisk) for SD_ReadDisk
    diskio.o(i.disk_read) refers to sd.o(i.SD_Init) for SD_Init
    diskio.o(i.disk_read) refers to w25q64.o(i.W25QXX_Read) for W25QXX_Read
    diskio.o(i.disk_write) refers to sd.o(i.SD_WriteDisk) for SD_WriteDisk
    diskio.o(i.disk_write) refers to sd.o(i.SD_Init) for SD_Init
    diskio.o(i.disk_write) refers to w25q64.o(i.W25QXX_Write) for W25QXX_Write
    diskio.o(i.ff_memalloc) refers to malloc.o(i.mymalloc) for mymalloc
    diskio.o(i.ff_memfree) refers to malloc.o(i.myfree) for myfree
    ff.o(i.check_fs) refers to ff.o(i.move_window) for move_window
    ff.o(i.cmp_lfn) refers to cc936.o(i.ff_wtoupper) for ff_wtoupper
    ff.o(i.cmp_lfn) refers to ff.o(.constdata) for LfnOfs
    ff.o(i.create_chain) refers to ff.o(i.get_fat) for get_fat
    ff.o(i.create_chain) refers to ff.o(i.put_fat) for put_fat
    ff.o(i.create_name) refers to cc936.o(i.ff_convert) for ff_convert
    ff.o(i.create_name) refers to ff.o(i.chk_chr) for chk_chr
    ff.o(i.create_name) refers to ff.o(i.mem_set) for mem_set
    ff.o(i.create_name) refers to cc936.o(i.ff_wtoupper) for ff_wtoupper
    ff.o(i.dir_alloc) refers to ff.o(i.dir_sdi) for dir_sdi
    ff.o(i.dir_alloc) refers to ff.o(i.move_window) for move_window
    ff.o(i.dir_alloc) refers to ff.o(i.dir_next) for dir_next
    ff.o(i.dir_find) refers to ff.o(i.dir_sdi) for dir_sdi
    ff.o(i.dir_find) refers to ff.o(i.move_window) for move_window
    ff.o(i.dir_find) refers to ff.o(i.cmp_lfn) for cmp_lfn
    ff.o(i.dir_find) refers to ff.o(i.sum_sfn) for sum_sfn
    ff.o(i.dir_find) refers to ff.o(i.mem_cmp) for mem_cmp
    ff.o(i.dir_find) refers to ff.o(i.dir_next) for dir_next
    ff.o(i.dir_next) refers to ff.o(i.get_fat) for get_fat
    ff.o(i.dir_next) refers to ff.o(i.create_chain) for create_chain
    ff.o(i.dir_next) refers to ff.o(i.sync_window) for sync_window
    ff.o(i.dir_next) refers to ff.o(i.mem_set) for mem_set
    ff.o(i.dir_next) refers to ff.o(i.clust2sect) for clust2sect
    ff.o(i.dir_read) refers to ff.o(i.move_window) for move_window
    ff.o(i.dir_read) refers to ff.o(i.pick_lfn) for pick_lfn
    ff.o(i.dir_read) refers to ff.o(i.sum_sfn) for sum_sfn
    ff.o(i.dir_read) refers to ff.o(i.dir_next) for dir_next
    ff.o(i.dir_register) refers to ff.o(i.mem_cpy) for mem_cpy
    ff.o(i.dir_register) refers to ff.o(i.gen_numname) for gen_numname
    ff.o(i.dir_register) refers to ff.o(i.dir_find) for dir_find
    ff.o(i.dir_register) refers to ff.o(i.dir_alloc) for dir_alloc
    ff.o(i.dir_register) refers to ff.o(i.dir_sdi) for dir_sdi
    ff.o(i.dir_register) refers to ff.o(i.sum_sfn) for sum_sfn
    ff.o(i.dir_register) refers to ff.o(i.move_window) for move_window
    ff.o(i.dir_register) refers to ff.o(i.fit_lfn) for fit_lfn
    ff.o(i.dir_register) refers to ff.o(i.dir_next) for dir_next
    ff.o(i.dir_register) refers to ff.o(i.mem_set) for mem_set
    ff.o(i.dir_remove) refers to ff.o(i.dir_sdi) for dir_sdi
    ff.o(i.dir_remove) refers to ff.o(i.move_window) for move_window
    ff.o(i.dir_remove) refers to ff.o(i.mem_set) for mem_set
    ff.o(i.dir_remove) refers to ff.o(i.dir_next) for dir_next
    ff.o(i.dir_sdi) refers to ff.o(i.get_fat) for get_fat
    ff.o(i.dir_sdi) refers to ff.o(i.clust2sect) for clust2sect
    ff.o(i.f_chmod) refers to ff.o(i.find_volume) for find_volume
    ff.o(i.f_chmod) refers to diskio.o(i.ff_memalloc) for ff_memalloc
    ff.o(i.f_chmod) refers to ff.o(i.follow_path) for follow_path
    ff.o(i.f_chmod) refers to diskio.o(i.ff_memfree) for ff_memfree
    ff.o(i.f_chmod) refers to ff.o(i.sync_fs) for sync_fs
    ff.o(i.f_close) refers to ff.o(i.f_sync) for f_sync
    ff.o(i.f_close) refers to ff.o(i.validate) for validate
    ff.o(i.f_closedir) refers to ff.o(i.validate) for validate
    ff.o(i.f_getfree) refers to ff.o(i.find_volume) for find_volume
    ff.o(i.f_getfree) refers to ff.o(i.get_fat) for get_fat
    ff.o(i.f_getfree) refers to ff.o(i.move_window) for move_window
    ff.o(i.f_getlabel) refers to ff.o(i.find_volume) for find_volume
    ff.o(i.f_getlabel) refers to ff.o(i.dir_sdi) for dir_sdi
    ff.o(i.f_getlabel) refers to ff.o(i.dir_read) for dir_read
    ff.o(i.f_getlabel) refers to ff.o(i.mem_cpy) for mem_cpy
    ff.o(i.f_getlabel) refers to ff.o(i.move_window) for move_window
    ff.o(i.f_gets) refers to ff.o(i.f_read) for f_read
    ff.o(i.f_lseek) refers to ff.o(i.validate) for validate
    ff.o(i.f_lseek) refers to ff.o(i.get_fat) for get_fat
    ff.o(i.f_lseek) refers to ff.o(i.clmt_clust) for clmt_clust
    ff.o(i.f_lseek) refers to ff.o(i.clust2sect) for clust2sect
    ff.o(i.f_lseek) refers to diskio.o(i.disk_write) for disk_write
    ff.o(i.f_lseek) refers to diskio.o(i.disk_read) for disk_read
    ff.o(i.f_lseek) refers to ff.o(i.create_chain) for create_chain
    ff.o(i.f_mkdir) refers to diskio.o(i.get_fattime) for get_fattime
    ff.o(i.f_mkdir) refers to ff.o(i.find_volume) for find_volume
    ff.o(i.f_mkdir) refers to diskio.o(i.ff_memalloc) for ff_memalloc
    ff.o(i.f_mkdir) refers to ff.o(i.follow_path) for follow_path
    ff.o(i.f_mkdir) refers to ff.o(i.create_chain) for create_chain
    ff.o(i.f_mkdir) refers to ff.o(i.sync_window) for sync_window
    ff.o(i.f_mkdir) refers to ff.o(i.clust2sect) for clust2sect
    ff.o(i.f_mkdir) refers to ff.o(i.mem_set) for mem_set
    ff.o(i.f_mkdir) refers to ff.o(i.st_clust) for st_clust
    ff.o(i.f_mkdir) refers to ff.o(i.mem_cpy) for mem_cpy
    ff.o(i.f_mkdir) refers to ff.o(i.dir_register) for dir_register
    ff.o(i.f_mkdir) refers to ff.o(i.remove_chain) for remove_chain
    ff.o(i.f_mkdir) refers to ff.o(i.sync_fs) for sync_fs
    ff.o(i.f_mkdir) refers to diskio.o(i.ff_memfree) for ff_memfree
    ff.o(i.f_mkfs) refers to ff.o(i.get_ldnumber) for get_ldnumber
    ff.o(i.f_mkfs) refers to diskio.o(i.disk_initialize) for disk_initialize
    ff.o(i.f_mkfs) refers to diskio.o(i.disk_ioctl) for disk_ioctl
    ff.o(i.f_mkfs) refers to ff.o(i.mem_set) for mem_set
    ff.o(i.f_mkfs) refers to diskio.o(i.disk_write) for disk_write
    ff.o(i.f_mkfs) refers to ff.o(i.mem_cpy) for mem_cpy
    ff.o(i.f_mkfs) refers to diskio.o(i.get_fattime) for get_fattime
    ff.o(i.f_mkfs) refers to ff.o(.data) for FatFs
    ff.o(i.f_mkfs) refers to ff.o(.constdata) for vst
    ff.o(i.f_mount) refers to ff.o(i.get_ldnumber) for get_ldnumber
    ff.o(i.f_mount) refers to ff.o(i.find_volume) for find_volume
    ff.o(i.f_mount) refers to ff.o(.data) for FatFs
    ff.o(i.f_open) refers to ff.o(i.find_volume) for find_volume
    ff.o(i.f_open) refers to diskio.o(i.ff_memalloc) for ff_memalloc
    ff.o(i.f_open) refers to ff.o(i.follow_path) for follow_path
    ff.o(i.f_open) refers to ff.o(i.dir_register) for dir_register
    ff.o(i.f_open) refers to diskio.o(i.get_fattime) for get_fattime
    ff.o(i.f_open) refers to ff.o(i.ld_clust) for ld_clust
    ff.o(i.f_open) refers to ff.o(i.st_clust) for st_clust
    ff.o(i.f_open) refers to ff.o(i.remove_chain) for remove_chain
    ff.o(i.f_open) refers to ff.o(i.move_window) for move_window
    ff.o(i.f_open) refers to diskio.o(i.ff_memfree) for ff_memfree
    ff.o(i.f_opendir) refers to ff.o(i.find_volume) for find_volume
    ff.o(i.f_opendir) refers to diskio.o(i.ff_memalloc) for ff_memalloc
    ff.o(i.f_opendir) refers to ff.o(i.follow_path) for follow_path
    ff.o(i.f_opendir) refers to diskio.o(i.ff_memfree) for ff_memfree
    ff.o(i.f_opendir) refers to ff.o(i.ld_clust) for ld_clust
    ff.o(i.f_opendir) refers to ff.o(i.dir_sdi) for dir_sdi
    ff.o(i.f_printf) refers to ff.o(i.putc_bfd) for putc_bfd
    ff.o(i.f_printf) refers to ff.o(i.f_write) for f_write
    ff.o(i.f_putc) refers to ff.o(i.putc_bfd) for putc_bfd
    ff.o(i.f_putc) refers to ff.o(i.f_write) for f_write
    ff.o(i.f_puts) refers to ff.o(i.putc_bfd) for putc_bfd
    ff.o(i.f_puts) refers to ff.o(i.f_write) for f_write
    ff.o(i.f_read) refers to ff.o(i.validate) for validate
    ff.o(i.f_read) refers to ff.o(i.clmt_clust) for clmt_clust
    ff.o(i.f_read) refers to ff.o(i.get_fat) for get_fat
    ff.o(i.f_read) refers to ff.o(i.clust2sect) for clust2sect
    ff.o(i.f_read) refers to diskio.o(i.disk_read) for disk_read
    ff.o(i.f_read) refers to ff.o(i.mem_cpy) for mem_cpy
    ff.o(i.f_read) refers to diskio.o(i.disk_write) for disk_write
    ff.o(i.f_readdir) refers to ff.o(i.validate) for validate
    ff.o(i.f_readdir) refers to ff.o(i.dir_sdi) for dir_sdi
    ff.o(i.f_readdir) refers to diskio.o(i.ff_memalloc) for ff_memalloc
    ff.o(i.f_readdir) refers to ff.o(i.dir_read) for dir_read
    ff.o(i.f_readdir) refers to ff.o(i.get_fileinfo) for get_fileinfo
    ff.o(i.f_readdir) refers to ff.o(i.dir_next) for dir_next
    ff.o(i.f_readdir) refers to diskio.o(i.ff_memfree) for ff_memfree
    ff.o(i.f_rename) refers to ff.o(i.find_volume) for find_volume
    ff.o(i.f_rename) refers to diskio.o(i.ff_memalloc) for ff_memalloc
    ff.o(i.f_rename) refers to ff.o(i.follow_path) for follow_path
    ff.o(i.f_rename) refers to ff.o(i.mem_cpy) for mem_cpy
    ff.o(i.f_rename) refers to ff.o(i.get_ldnumber) for get_ldnumber
    ff.o(i.f_rename) refers to ff.o(i.dir_register) for dir_register
    ff.o(i.f_rename) refers to ff.o(i.ld_clust) for ld_clust
    ff.o(i.f_rename) refers to ff.o(i.clust2sect) for clust2sect
    ff.o(i.f_rename) refers to ff.o(i.move_window) for move_window
    ff.o(i.f_rename) refers to ff.o(i.st_clust) for st_clust
    ff.o(i.f_rename) refers to ff.o(i.dir_remove) for dir_remove
    ff.o(i.f_rename) refers to ff.o(i.sync_fs) for sync_fs
    ff.o(i.f_rename) refers to diskio.o(i.ff_memfree) for ff_memfree
    ff.o(i.f_setlabel) refers to ff.o(i.find_volume) for find_volume
    ff.o(i.f_setlabel) refers to cc936.o(i.ff_convert) for ff_convert
    ff.o(i.f_setlabel) refers to cc936.o(i.ff_wtoupper) for ff_wtoupper
    ff.o(i.f_setlabel) refers to ff.o(i.chk_chr) for chk_chr
    ff.o(i.f_setlabel) refers to ff.o(i.dir_sdi) for dir_sdi
    ff.o(i.f_setlabel) refers to ff.o(i.dir_read) for dir_read
    ff.o(i.f_setlabel) refers to ff.o(i.mem_cpy) for mem_cpy
    ff.o(i.f_setlabel) refers to diskio.o(i.get_fattime) for get_fattime
    ff.o(i.f_setlabel) refers to ff.o(i.sync_fs) for sync_fs
    ff.o(i.f_setlabel) refers to ff.o(i.dir_alloc) for dir_alloc
    ff.o(i.f_setlabel) refers to ff.o(i.mem_set) for mem_set
    ff.o(i.f_stat) refers to ff.o(i.find_volume) for find_volume
    ff.o(i.f_stat) refers to diskio.o(i.ff_memalloc) for ff_memalloc
    ff.o(i.f_stat) refers to ff.o(i.follow_path) for follow_path
    ff.o(i.f_stat) refers to ff.o(i.get_fileinfo) for get_fileinfo
    ff.o(i.f_stat) refers to diskio.o(i.ff_memfree) for ff_memfree
    ff.o(i.f_sync) refers to ff.o(i.validate) for validate
    ff.o(i.f_sync) refers to diskio.o(i.disk_write) for disk_write
    ff.o(i.f_sync) refers to ff.o(i.move_window) for move_window
    ff.o(i.f_sync) refers to ff.o(i.st_clust) for st_clust
    ff.o(i.f_sync) refers to diskio.o(i.get_fattime) for get_fattime
    ff.o(i.f_sync) refers to ff.o(i.sync_fs) for sync_fs
    ff.o(i.f_truncate) refers to ff.o(i.validate) for validate
    ff.o(i.f_truncate) refers to ff.o(i.remove_chain) for remove_chain
    ff.o(i.f_truncate) refers to ff.o(i.get_fat) for get_fat
    ff.o(i.f_truncate) refers to ff.o(i.put_fat) for put_fat
    ff.o(i.f_truncate) refers to diskio.o(i.disk_write) for disk_write
    ff.o(i.f_unlink) refers to ff.o(i.find_volume) for find_volume
    ff.o(i.f_unlink) refers to diskio.o(i.ff_memalloc) for ff_memalloc
    ff.o(i.f_unlink) refers to ff.o(i.follow_path) for follow_path
    ff.o(i.f_unlink) refers to ff.o(i.ld_clust) for ld_clust
    ff.o(i.f_unlink) refers to ff.o(i.mem_cpy) for mem_cpy
    ff.o(i.f_unlink) refers to ff.o(i.dir_sdi) for dir_sdi
    ff.o(i.f_unlink) refers to ff.o(i.dir_read) for dir_read
    ff.o(i.f_unlink) refers to ff.o(i.dir_remove) for dir_remove
    ff.o(i.f_unlink) refers to ff.o(i.remove_chain) for remove_chain
    ff.o(i.f_unlink) refers to ff.o(i.sync_fs) for sync_fs
    ff.o(i.f_unlink) refers to diskio.o(i.ff_memfree) for ff_memfree
    ff.o(i.f_utime) refers to ff.o(i.find_volume) for find_volume
    ff.o(i.f_utime) refers to diskio.o(i.ff_memalloc) for ff_memalloc
    ff.o(i.f_utime) refers to ff.o(i.follow_path) for follow_path
    ff.o(i.f_utime) refers to diskio.o(i.ff_memfree) for ff_memfree
    ff.o(i.f_utime) refers to ff.o(i.sync_fs) for sync_fs
    ff.o(i.f_write) refers to ff.o(i.validate) for validate
    ff.o(i.f_write) refers to ff.o(i.create_chain) for create_chain
    ff.o(i.f_write) refers to ff.o(i.clmt_clust) for clmt_clust
    ff.o(i.f_write) refers to diskio.o(i.disk_write) for disk_write
    ff.o(i.f_write) refers to ff.o(i.clust2sect) for clust2sect
    ff.o(i.f_write) refers to ff.o(i.mem_cpy) for mem_cpy
    ff.o(i.f_write) refers to diskio.o(i.disk_read) for disk_read
    ff.o(i.find_volume) refers to ff.o(i.get_ldnumber) for get_ldnumber
    ff.o(i.find_volume) refers to diskio.o(i.disk_status) for disk_status
    ff.o(i.find_volume) refers to diskio.o(i.disk_initialize) for disk_initialize
    ff.o(i.find_volume) refers to ff.o(i.check_fs) for check_fs
    ff.o(i.find_volume) refers to printfa.o(i.__0printf) for __2printf
    ff.o(i.find_volume) refers to ff.o(i.move_window) for move_window
    ff.o(i.find_volume) refers to ff.o(.data) for FatFs
    ff.o(i.fit_lfn) refers to ff.o(.constdata) for LfnOfs
    ff.o(i.follow_path) refers to ff.o(i.dir_sdi) for dir_sdi
    ff.o(i.follow_path) refers to ff.o(i.create_name) for create_name
    ff.o(i.follow_path) refers to ff.o(i.dir_find) for dir_find
    ff.o(i.follow_path) refers to ff.o(i.ld_clust) for ld_clust
    ff.o(i.gen_numname) refers to ff.o(i.mem_cpy) for mem_cpy
    ff.o(i.get_fat) refers to ff.o(i.move_window) for move_window
    ff.o(i.get_fileinfo) refers to cc936.o(i.ff_convert) for ff_convert
    ff.o(i.move_window) refers to ff.o(i.sync_window) for sync_window
    ff.o(i.move_window) refers to diskio.o(i.disk_read) for disk_read
    ff.o(i.pick_lfn) refers to ff.o(.constdata) for LfnOfs
    ff.o(i.put_fat) refers to ff.o(i.move_window) for move_window
    ff.o(i.putc_bfd) refers to ff.o(i.f_write) for f_write
    ff.o(i.remove_chain) refers to ff.o(i.get_fat) for get_fat
    ff.o(i.remove_chain) refers to ff.o(i.put_fat) for put_fat
    ff.o(i.sync_fs) refers to ff.o(i.sync_window) for sync_window
    ff.o(i.sync_fs) refers to ff.o(i.mem_set) for mem_set
    ff.o(i.sync_fs) refers to diskio.o(i.disk_write) for disk_write
    ff.o(i.sync_fs) refers to diskio.o(i.disk_ioctl) for disk_ioctl
    ff.o(i.sync_window) refers to diskio.o(i.disk_write) for disk_write
    ff.o(i.validate) refers to diskio.o(i.disk_status) for disk_status
    cc936.o(i.ff_convert) refers to cc936.o(.constdata) for oem2uni
    cc936.o(i.ff_wtoupper) refers to cc936.o(.constdata) for tbl_lower
    exfuns.o(i.exf_getfree) refers to ff.o(i.f_getfree) for f_getfree
    exfuns.o(i.exfuns_init) refers to malloc.o(i.mymalloc) for mymalloc
    exfuns.o(i.exfuns_init) refers to exfuns.o(.data) for fs
    exfuns.o(i.f_typetell) refers to strcpy.o(.text) for strcpy
    exfuns.o(i.f_typetell) refers to exfuns.o(i.char_upper) for char_upper
    exfuns.o(i.f_typetell) refers to strcmp.o(.text) for strcmp
    exfuns.o(i.f_typetell) refers to exfuns.o(.constdata) for FILE_TYPE_TBL
    exfuns.o(.constdata) refers to exfuns.o(.conststring) for .conststring
    fattester.o(i.mf_close) refers to ff.o(i.f_close) for f_close
    fattester.o(i.mf_close) refers to exfuns.o(.data) for file
    fattester.o(i.mf_closedir) refers to ff.o(i.f_closedir) for f_closedir
    fattester.o(i.mf_closedir) refers to exfuns.o(.bss) for dir
    fattester.o(i.mf_fmkfs) refers to ff.o(i.f_mkfs) for f_mkfs
    fattester.o(i.mf_getlabel) refers to ff.o(i.f_getlabel) for f_getlabel
    fattester.o(i.mf_getlabel) refers to printfa.o(i.__0printf) for __2printf
    fattester.o(i.mf_gets) refers to ff.o(i.f_gets) for f_gets
    fattester.o(i.mf_gets) refers to printfa.o(i.__0printf) for __2printf
    fattester.o(i.mf_gets) refers to exfuns.o(.data) for file
    fattester.o(i.mf_lseek) refers to ff.o(i.f_lseek) for f_lseek
    fattester.o(i.mf_lseek) refers to exfuns.o(.data) for file
    fattester.o(i.mf_mkdir) refers to ff.o(i.f_mkdir) for f_mkdir
    fattester.o(i.mf_mount) refers to ff.o(i.f_mount) for f_mount
    fattester.o(i.mf_mount) refers to exfuns.o(.data) for fs
    fattester.o(i.mf_open) refers to ff.o(i.f_open) for f_open
    fattester.o(i.mf_open) refers to exfuns.o(.data) for file
    fattester.o(i.mf_opendir) refers to ff.o(i.f_opendir) for f_opendir
    fattester.o(i.mf_opendir) refers to exfuns.o(.bss) for dir
    fattester.o(i.mf_putc) refers to ff.o(i.f_putc) for f_putc
    fattester.o(i.mf_putc) refers to exfuns.o(.data) for file
    fattester.o(i.mf_puts) refers to ff.o(i.f_puts) for f_puts
    fattester.o(i.mf_puts) refers to exfuns.o(.data) for file
    fattester.o(i.mf_read) refers to printfa.o(i.__0printf) for __2printf
    fattester.o(i.mf_read) refers to ff.o(i.f_read) for f_read
    fattester.o(i.mf_read) refers to exfuns.o(.data) for br
    fattester.o(i.mf_readdir) refers to malloc.o(i.mymalloc) for mymalloc
    fattester.o(i.mf_readdir) refers to ff.o(i.f_readdir) for f_readdir
    fattester.o(i.mf_readdir) refers to malloc.o(i.myfree) for myfree
    fattester.o(i.mf_readdir) refers to printfa.o(i.__0printf) for __2printf
    fattester.o(i.mf_readdir) refers to exfuns.o(.bss) for fileinfo
    fattester.o(i.mf_rename) refers to ff.o(i.f_rename) for f_rename
    fattester.o(i.mf_scan_files) refers to malloc.o(i.mymalloc) for mymalloc
    fattester.o(i.mf_scan_files) refers to ff.o(i.f_opendir) for f_opendir
    fattester.o(i.mf_scan_files) refers to printfa.o(i.__0printf) for __2printf
    fattester.o(i.mf_scan_files) refers to ff.o(i.f_readdir) for f_readdir
    fattester.o(i.mf_scan_files) refers to malloc.o(i.myfree) for myfree
    fattester.o(i.mf_scan_files) refers to exfuns.o(.bss) for fileinfo
    fattester.o(i.mf_setlabel) refers to ff.o(i.f_setlabel) for f_setlabel
    fattester.o(i.mf_setlabel) refers to printfa.o(i.__0printf) for __2printf
    fattester.o(i.mf_showfree) refers to ff.o(i.f_getfree) for f_getfree
    fattester.o(i.mf_showfree) refers to printfa.o(i.__0printf) for __2printf
    fattester.o(i.mf_size) refers to exfuns.o(.data) for file
    fattester.o(i.mf_tell) refers to exfuns.o(.data) for file
    fattester.o(i.mf_unlink) refers to ff.o(i.f_unlink) for f_unlink
    fattester.o(i.mf_write) refers to printfa.o(i.__0printf) for __2printf
    fattester.o(i.mf_write) refers to ff.o(i.f_write) for f_write
    fattester.o(i.mf_write) refers to exfuns.o(.data) for bw
    fontupd.o(i.font_init) refers to w25q64.o(i.W25Qxx_SPIAndIO_Init) for W25Qxx_SPIAndIO_Init
    fontupd.o(i.font_init) refers to w25q64.o(i.W25QXX_Read) for W25QXX_Read
    fontupd.o(i.font_init) refers to delay.o(i.delay_ms) for delay_ms
    fontupd.o(i.font_init) refers to fontupd.o(.bss) for ftinfo
    fontupd.o(i.fupd_prog) refers to ffltui.o(.text) for __aeabi_ui2f
    fontupd.o(i.fupd_prog) refers to fdiv.o(.text) for __aeabi_fdiv
    fontupd.o(i.fupd_prog) refers to fmul.o(.text) for __aeabi_fmul
    fontupd.o(i.fupd_prog) refers to cfcmple.o(.text) for __aeabi_cfcmpeq
    fontupd.o(i.fupd_prog) refers to printfa.o(i.__0sprintf) for __2sprintf
    fontupd.o(i.fupd_prog) refers to ffixui.o(.text) for __aeabi_f2uiz
    fontupd.o(i.fupd_prog) refers to tft.o(i.LCDDebug) for LCDDebug
    fontupd.o(i.updata_fontx) refers to malloc.o(i.mymalloc) for mymalloc
    fontupd.o(i.updata_fontx) refers to ff.o(i.f_open) for f_open
    fontupd.o(i.updata_fontx) refers to ff.o(i.f_read) for f_read
    fontupd.o(i.updata_fontx) refers to w25q64.o(i.W25QXX_Write) for W25QXX_Write
    fontupd.o(i.updata_fontx) refers to fontupd.o(i.fupd_prog) for fupd_prog
    fontupd.o(i.updata_fontx) refers to ff.o(i.f_close) for f_close
    fontupd.o(i.updata_fontx) refers to malloc.o(i.myfree) for myfree
    fontupd.o(i.updata_fontx) refers to fontupd.o(.bss) for ftinfo
    fontupd.o(i.update_font) refers to malloc.o(i.mymalloc) for mymalloc
    fontupd.o(i.update_font) refers to malloc.o(i.myfree) for myfree
    fontupd.o(i.update_font) refers to strcpy.o(.text) for strcpy
    fontupd.o(i.update_font) refers to strcat.o(.text) for strcat
    fontupd.o(i.update_font) refers to ff.o(i.f_open) for f_open
    fontupd.o(i.update_font) refers to tft.o(i.LCDDebug) for LCDDebug
    fontupd.o(i.update_font) refers to fontupd.o(i.fupd_prog) for fupd_prog
    fontupd.o(i.update_font) refers to w25q64.o(i.W25QXX_Read) for W25QXX_Read
    fontupd.o(i.update_font) refers to w25q64.o(i.W25QXX_Erase_Sector) for W25QXX_Erase_Sector
    fontupd.o(i.update_font) refers to fontupd.o(i.updata_fontx) for updata_fontx
    fontupd.o(i.update_font) refers to w25q64.o(i.W25QXX_Write) for W25QXX_Write
    fontupd.o(i.update_font) refers to fontupd.o(.bss) for ftinfo
    fontupd.o(i.update_font) refers to fontupd.o(.constdata) for UNIGBK_PATH
    fontupd.o(.constdata) refers to fontupd.o(.conststring) for .conststring
    text.o(i.Get_HzMat) refers to w25q64.o(i.W25QXX_Read) for W25QXX_Read
    text.o(i.Get_HzMat) refers to fontupd.o(.bss) for ftinfo
    text.o(i.Show_Font) refers to text.o(i.Get_HzMat) for Get_HzMat
    text.o(i.Show_Font) refers to tft.o(i.LCD_DrawPoint) for LCD_DrawPoint
    text.o(i.Show_Str) refers to tft.o(i.LCD_ShowChar) for LCD_ShowChar
    text.o(i.Show_Str) refers to text.o(i.Show_Font) for Show_Font
    text.o(i.Show_Str_Mid) refers to strlen.o(.text) for strlen
    text.o(i.Show_Str_Mid) refers to text.o(i.Show_Str) for Show_Str
    bmp.o(i.minibmp_decode) refers to piclib.o(i.pic_memalloc) for pic_memalloc
    bmp.o(i.minibmp_decode) refers to printfa.o(i.__0printf) for __2printf
    bmp.o(i.minibmp_decode) refers to piclib.o(i.pic_memfree) for pic_memfree
    bmp.o(i.minibmp_decode) refers to ff.o(i.f_open) for f_open
    bmp.o(i.minibmp_decode) refers to ff.o(i.f_read) for f_read
    bmp.o(i.minibmp_decode) refers to ff.o(i.f_lseek) for f_lseek
    bmp.o(i.minibmp_decode) refers to piclib.o(i.piclib_alpha_blend) for piclib_alpha_blend
    bmp.o(i.minibmp_decode) refers to ff.o(i.f_close) for f_close
    bmp.o(i.minibmp_decode) refers to piclib.o(.bss) for picinfo
    bmp.o(i.stdbmp_decode) refers to piclib.o(i.pic_memalloc) for pic_memalloc
    bmp.o(i.stdbmp_decode) refers to piclib.o(i.pic_memfree) for pic_memfree
    bmp.o(i.stdbmp_decode) refers to ff.o(i.f_open) for f_open
    bmp.o(i.stdbmp_decode) refers to printfa.o(i.__0printf) for __2printf
    bmp.o(i.stdbmp_decode) refers to ff.o(i.f_read) for f_read
    bmp.o(i.stdbmp_decode) refers to piclib.o(i.ai_draw_init) for ai_draw_init
    bmp.o(i.stdbmp_decode) refers to piclib.o(i.is_element_ok) for is_element_ok
    bmp.o(i.stdbmp_decode) refers to ff.o(i.f_close) for f_close
    bmp.o(i.stdbmp_decode) refers to piclib.o(.bss) for picinfo
    gif.o(i.gif_check_head) refers to ff.o(i.f_read) for f_read
    gif.o(i.gif_clear2bkcolor) refers to piclib.o(.bss) for pic_phy
    gif.o(i.gif_decode) refers to piclib.o(i.pic_memalloc) for pic_memalloc
    gif.o(i.gif_decode) refers to ff.o(i.f_open) for f_open
    gif.o(i.gif_decode) refers to gif.o(i.gif_check_head) for gif_check_head
    gif.o(i.gif_decode) refers to gif.o(i.gif_getinfo) for gif_getinfo
    gif.o(i.gif_decode) refers to gif.o(i.gif_drawimage) for gif_drawimage
    gif.o(i.gif_decode) refers to gif.o(i.gif_recovergctbl) for gif_recovergctbl
    gif.o(i.gif_decode) refers to delay.o(i.delay_ms) for delay_ms
    gif.o(i.gif_decode) refers to ff.o(i.f_close) for f_close
    gif.o(i.gif_decode) refers to piclib.o(i.pic_memfree) for pic_memfree
    gif.o(i.gif_decode) refers to gif.o(.data) for gifdecoding
    gif.o(i.gif_dispimage) refers to ff.o(i.f_read) for f_read
    gif.o(i.gif_dispimage) refers to gif.o(i.gif_initlzw) for gif_initlzw
    gif.o(i.gif_dispimage) refers to gif.o(i.gif_getnextbyte) for gif_getnextbyte
    gif.o(i.gif_dispimage) refers to piclib.o(.bss) for pic_phy
    gif.o(i.gif_dispimage) refers to gif.o(.constdata) for _aInterlaceOffset
    gif.o(i.gif_drawimage) refers to ff.o(i.f_read) for f_read
    gif.o(i.gif_drawimage) refers to gif.o(i.gif_savegctbl) for gif_savegctbl
    gif.o(i.gif_drawimage) refers to gif.o(i.gif_readcolortbl) for gif_readcolortbl
    gif.o(i.gif_drawimage) refers to gif.o(i.gif_clear2bkcolor) for gif_clear2bkcolor
    gif.o(i.gif_drawimage) refers to gif.o(i.gif_dispimage) for gif_dispimage
    gif.o(i.gif_drawimage) refers to ff.o(i.f_lseek) for f_lseek
    gif.o(i.gif_drawimage) refers to gif.o(i.gif_readextension) for gif_readextension
    gif.o(i.gif_getdatablock) refers to ff.o(i.f_read) for f_read
    gif.o(i.gif_getdatablock) refers to ff.o(i.f_lseek) for f_lseek
    gif.o(i.gif_getinfo) refers to ff.o(i.f_read) for f_read
    gif.o(i.gif_getinfo) refers to gif.o(i.gif_readcolortbl) for gif_readcolortbl
    gif.o(i.gif_getnextbyte) refers to malloc.o(i.mymemset) for mymemset
    gif.o(i.gif_getnextbyte) refers to gif.o(i.gif_getnextcode) for gif_getnextcode
    gif.o(i.gif_getnextcode) refers to gif.o(i.gif_getdatablock) for gif_getdatablock
    gif.o(i.gif_getnextcode) refers to gif.o(.constdata) for _aMaskTbl
    gif.o(i.gif_initlzw) refers to malloc.o(i.mymemset) for mymemset
    gif.o(i.gif_quit) refers to gif.o(.data) for gifdecoding
    gif.o(i.gif_readcolortbl) refers to ff.o(i.f_read) for f_read
    gif.o(i.gif_readcolortbl) refers to gif.o(i.gif_getrgb565) for gif_getrgb565
    gif.o(i.gif_readextension) refers to ff.o(i.f_read) for f_read
    gif.o(i.gif_readextension) refers to gif.o(i.gif_getdatablock) for gif_getdatablock
    piclib.o(i.ai_draw_init) refers to ffltui.o(.text) for __aeabi_ui2f
    piclib.o(i.ai_draw_init) refers to fdiv.o(.text) for __aeabi_fdiv
    piclib.o(i.ai_draw_init) refers to cfcmple.o(.text) for __aeabi_cfcmple
    piclib.o(i.ai_draw_init) refers to cfrcmple.o(.text) for __aeabi_cfrcmple
    piclib.o(i.ai_draw_init) refers to fmul.o(.text) for __aeabi_fmul
    piclib.o(i.ai_draw_init) refers to fadd.o(.text) for __aeabi_fsub
    piclib.o(i.ai_draw_init) refers to ffixui.o(.text) for __aeabi_f2uiz
    piclib.o(i.ai_draw_init) refers to piclib.o(.bss) for picinfo
    piclib.o(i.ai_load_picfile) refers to exfuns.o(i.f_typetell) for f_typetell
    piclib.o(i.ai_load_picfile) refers to bmp.o(i.stdbmp_decode) for stdbmp_decode
    piclib.o(i.ai_load_picfile) refers to printfa.o(i.__0printf) for __2printf
    piclib.o(i.ai_load_picfile) refers to tjpgd.o(i.jpg_decode) for jpg_decode
    piclib.o(i.ai_load_picfile) refers to gif.o(i.gif_decode) for gif_decode
    piclib.o(i.ai_load_picfile) refers to piclib.o(.bss) for picinfo
    piclib.o(i.is_element_ok) refers to piclib.o(.bss) for picinfo
    piclib.o(i.pic_memalloc) refers to malloc.o(i.mymalloc) for mymalloc
    piclib.o(i.pic_memfree) refers to malloc.o(i.myfree) for myfree
    piclib.o(i.piclib_draw_hline) refers to tft.o(i.LCD_Fill) for LCD_Fill
    piclib.o(i.piclib_fill_color) refers to tft.o(i.LCD_Color_Fill) for LCD_Color_Fill
    piclib.o(i.piclib_init) refers to tft.o(i.LCD_DrawPoint) for LCD_DrawPoint
    piclib.o(i.piclib_init) refers to piclib.o(.bss) for pic_phy
    piclib.o(i.piclib_init) refers to tft.o(i.LCD_Fill) for LCD_Fill
    piclib.o(i.piclib_init) refers to piclib.o(i.piclib_draw_hline) for piclib_draw_hline
    piclib.o(i.piclib_init) refers to piclib.o(i.piclib_fill_color) for piclib_fill_color
    tjpgd.o(i.block_idct) refers to tjpgd.o(.constdata) for Clip8
    tjpgd.o(i.create_huffman_tbl) refers to tjpgd.o(i.alloc_pool) for alloc_pool
    tjpgd.o(i.create_qt_tbl) refers to tjpgd.o(i.alloc_pool) for alloc_pool
    tjpgd.o(i.create_qt_tbl) refers to tjpgd.o(.constdata) for Zig
    tjpgd.o(i.jd_decomp) refers to tjpgd.o(i.restart) for restart
    tjpgd.o(i.jd_decomp) refers to tjpgd.o(i.mcu_load) for mcu_load
    tjpgd.o(i.jd_decomp) refers to tjpgd.o(i.mcu_output) for mcu_output
    tjpgd.o(i.jd_prepare) refers to tjpgd.o(i.alloc_pool) for alloc_pool
    tjpgd.o(i.jd_prepare) refers to tjpgd.o(i.create_huffman_tbl) for create_huffman_tbl
    tjpgd.o(i.jd_prepare) refers to tjpgd.o(i.create_qt_tbl) for create_qt_tbl
    tjpgd.o(i.jpeg_freeall) refers to piclib.o(i.pic_memfree) for pic_memfree
    tjpgd.o(i.jpeg_freeall) refers to tjpgd.o(.data) for f_jpeg
    tjpgd.o(i.jpeg_in_func) refers to ff.o(i.f_read) for f_read
    tjpgd.o(i.jpeg_in_func) refers to ff.o(i.f_lseek) for f_lseek
    tjpgd.o(i.jpeg_mallocall) refers to piclib.o(i.pic_memalloc) for pic_memalloc
    tjpgd.o(i.jpeg_mallocall) refers to tjpgd.o(.data) for f_jpeg
    tjpgd.o(i.jpeg_out_func_fill) refers to piclib.o(.bss) for picinfo
    tjpgd.o(i.jpeg_out_func_point) refers to piclib.o(i.is_element_ok) for is_element_ok
    tjpgd.o(i.jpeg_out_func_point) refers to piclib.o(.bss) for picinfo
    tjpgd.o(i.jpg_decode) refers to tjpgd.o(i.jpeg_mallocall) for jpeg_mallocall
    tjpgd.o(i.jpg_decode) refers to ff.o(i.f_open) for f_open
    tjpgd.o(i.jpg_decode) refers to tjpgd.o(i.jd_prepare) for jd_prepare
    tjpgd.o(i.jpg_decode) refers to piclib.o(i.ai_draw_init) for ai_draw_init
    tjpgd.o(i.jpg_decode) refers to tjpgd.o(i.jd_decomp) for jd_decomp
    tjpgd.o(i.jpg_decode) refers to ff.o(i.f_close) for f_close
    tjpgd.o(i.jpg_decode) refers to tjpgd.o(i.jpeg_freeall) for jpeg_freeall
    tjpgd.o(i.jpg_decode) refers to tjpgd.o(.data) for f_jpeg
    tjpgd.o(i.jpg_decode) refers to tjpgd.o(i.jpeg_in_func) for jpeg_in_func
    tjpgd.o(i.jpg_decode) refers to tjpgd.o(i.jpeg_out_func_point) for jpeg_out_func_point
    tjpgd.o(i.jpg_decode) refers to piclib.o(.bss) for picinfo
    tjpgd.o(i.jpg_decode) refers to tjpgd.o(i.jpeg_out_func_fill) for jpeg_out_func_fill
    tjpgd.o(i.mcu_load) refers to tjpgd.o(i.huffext) for huffext
    tjpgd.o(i.mcu_load) refers to tjpgd.o(i.bitext) for bitext
    tjpgd.o(i.mcu_load) refers to tjpgd.o(i.block_idct) for block_idct
    tjpgd.o(i.mcu_load) refers to tjpgd.o(.constdata) for Zig
    tjpgd.o(i.mcu_output) refers to tjpgd.o(.constdata) for Clip8
    startup_stm32f10x_hd.o(RESET) refers to startup_stm32f10x_hd.o(STACK) for __initial_sp
    startup_stm32f10x_hd.o(RESET) refers to startup_stm32f10x_hd.o(.text) for Reset_Handler
    startup_stm32f10x_hd.o(RESET) refers to stm32f10x_it.o(i.NMI_Handler) for NMI_Handler
    startup_stm32f10x_hd.o(RESET) refers to stm32f10x_it.o(i.HardFault_Handler) for HardFault_Handler
    startup_stm32f10x_hd.o(RESET) refers to stm32f10x_it.o(i.MemManage_Handler) for MemManage_Handler
    startup_stm32f10x_hd.o(RESET) refers to stm32f10x_it.o(i.BusFault_Handler) for BusFault_Handler
    startup_stm32f10x_hd.o(RESET) refers to stm32f10x_it.o(i.UsageFault_Handler) for UsageFault_Handler
    startup_stm32f10x_hd.o(RESET) refers to stm32f10x_it.o(i.SVC_Handler) for SVC_Handler
    startup_stm32f10x_hd.o(RESET) refers to stm32f10x_it.o(i.DebugMon_Handler) for DebugMon_Handler
    startup_stm32f10x_hd.o(RESET) refers to stm32f10x_it.o(i.PendSV_Handler) for PendSV_Handler
    startup_stm32f10x_hd.o(RESET) refers to stm32f10x_it.o(i.SysTick_Handler) for SysTick_Handler
    startup_stm32f10x_hd.o(RESET) refers to usart.o(i.USART1_IRQHandler) for USART1_IRQHandler
    startup_stm32f10x_hd.o(RESET) refers to key.o(i.EXTI15_10_IRQHandler) for EXTI15_10_IRQHandler
    startup_stm32f10x_hd.o(RESET) refers to sd.o(i.SDIO_IRQHandler) for SDIO_IRQHandler
    startup_stm32f10x_hd.o(RESET) refers to usart.o(i.UART4_IRQHandler) for UART4_IRQHandler
    startup_stm32f10x_hd.o(RESET) refers to usart.o(i.TIM7_IRQHandler) for TIM7_IRQHandler
    startup_stm32f10x_hd.o(.text) refers to system_stm32f10x.o(i.SystemInit) for SystemInit
    startup_stm32f10x_hd.o(.text) refers to entry.o(.ARM.Collect$$$$00000000) for __main
    stm32f10x_gpio.o(i.GPIO_AFIODeInit) refers to stm32f10x_rcc.o(i.RCC_APB2PeriphResetCmd) for RCC_APB2PeriphResetCmd
    stm32f10x_gpio.o(i.GPIO_DeInit) refers to stm32f10x_rcc.o(i.RCC_APB2PeriphResetCmd) for RCC_APB2PeriphResetCmd
    stm32f10x_rcc.o(i.RCC_GetClocksFreq) refers to stm32f10x_rcc.o(.data) for APBAHBPrescTable
    stm32f10x_rcc.o(i.RCC_WaitForHSEStartUp) refers to stm32f10x_rcc.o(i.RCC_GetFlagStatus) for RCC_GetFlagStatus
    stm32f10x_usart.o(i.USART_DeInit) refers to stm32f10x_rcc.o(i.RCC_APB2PeriphResetCmd) for RCC_APB2PeriphResetCmd
    stm32f10x_usart.o(i.USART_DeInit) refers to stm32f10x_rcc.o(i.RCC_APB1PeriphResetCmd) for RCC_APB1PeriphResetCmd
    stm32f10x_usart.o(i.USART_Init) refers to stm32f10x_rcc.o(i.RCC_GetClocksFreq) for RCC_GetClocksFreq
    stm32f10x_cec.o(i.CEC_DeInit) refers to stm32f10x_rcc.o(i.RCC_APB1PeriphResetCmd) for RCC_APB1PeriphResetCmd
    stm32f10x_dac.o(i.DAC_DeInit) refers to stm32f10x_rcc.o(i.RCC_APB1PeriphResetCmd) for RCC_APB1PeriphResetCmd
    stm32f10x_flash.o(i.FLASH_EnableWriteProtection) refers to stm32f10x_flash.o(i.FLASH_WaitForLastOperation) for FLASH_WaitForLastOperation
    stm32f10x_flash.o(i.FLASH_EraseAllBank1Pages) refers to stm32f10x_flash.o(i.FLASH_WaitForLastBank1Operation) for FLASH_WaitForLastBank1Operation
    stm32f10x_flash.o(i.FLASH_EraseAllPages) refers to stm32f10x_flash.o(i.FLASH_WaitForLastOperation) for FLASH_WaitForLastOperation
    stm32f10x_flash.o(i.FLASH_EraseOptionBytes) refers to stm32f10x_flash.o(i.FLASH_GetReadOutProtectionStatus) for FLASH_GetReadOutProtectionStatus
    stm32f10x_flash.o(i.FLASH_EraseOptionBytes) refers to stm32f10x_flash.o(i.FLASH_WaitForLastOperation) for FLASH_WaitForLastOperation
    stm32f10x_flash.o(i.FLASH_ErasePage) refers to stm32f10x_flash.o(i.FLASH_WaitForLastOperation) for FLASH_WaitForLastOperation
    stm32f10x_flash.o(i.FLASH_ProgramHalfWord) refers to stm32f10x_flash.o(i.FLASH_WaitForLastOperation) for FLASH_WaitForLastOperation
    stm32f10x_flash.o(i.FLASH_ProgramOptionByteData) refers to stm32f10x_flash.o(i.FLASH_WaitForLastOperation) for FLASH_WaitForLastOperation
    stm32f10x_flash.o(i.FLASH_ProgramWord) refers to stm32f10x_flash.o(i.FLASH_WaitForLastOperation) for FLASH_WaitForLastOperation
    stm32f10x_flash.o(i.FLASH_ReadOutProtection) refers to stm32f10x_flash.o(i.FLASH_WaitForLastOperation) for FLASH_WaitForLastOperation
    stm32f10x_flash.o(i.FLASH_UserOptionByteConfig) refers to stm32f10x_flash.o(i.FLASH_WaitForLastOperation) for FLASH_WaitForLastOperation
    stm32f10x_flash.o(i.FLASH_WaitForLastBank1Operation) refers to stm32f10x_flash.o(i.FLASH_GetBank1Status) for FLASH_GetBank1Status
    stm32f10x_flash.o(i.FLASH_WaitForLastOperation) refers to stm32f10x_flash.o(i.FLASH_GetBank1Status) for FLASH_GetBank1Status
    stm32f10x_i2c.o(i.I2C_DeInit) refers to stm32f10x_rcc.o(i.RCC_APB1PeriphResetCmd) for RCC_APB1PeriphResetCmd
    stm32f10x_i2c.o(i.I2C_Init) refers to stm32f10x_rcc.o(i.RCC_GetClocksFreq) for RCC_GetClocksFreq
    stm32f10x_pwr.o(i.PWR_DeInit) refers to stm32f10x_rcc.o(i.RCC_APB1PeriphResetCmd) for RCC_APB1PeriphResetCmd
    stm32f10x_rtc.o(i.RTC_SetAlarm) refers to stm32f10x_rtc.o(i.RTC_EnterConfigMode) for RTC_EnterConfigMode
    stm32f10x_rtc.o(i.RTC_SetAlarm) refers to stm32f10x_rtc.o(i.RTC_ExitConfigMode) for RTC_ExitConfigMode
    stm32f10x_rtc.o(i.RTC_SetCounter) refers to stm32f10x_rtc.o(i.RTC_EnterConfigMode) for RTC_EnterConfigMode
    stm32f10x_rtc.o(i.RTC_SetCounter) refers to stm32f10x_rtc.o(i.RTC_ExitConfigMode) for RTC_ExitConfigMode
    stm32f10x_rtc.o(i.RTC_SetPrescaler) refers to stm32f10x_rtc.o(i.RTC_EnterConfigMode) for RTC_EnterConfigMode
    stm32f10x_rtc.o(i.RTC_SetPrescaler) refers to stm32f10x_rtc.o(i.RTC_ExitConfigMode) for RTC_ExitConfigMode
    stm32f10x_spi.o(i.I2S_Init) refers to stm32f10x_rcc.o(i.RCC_GetClocksFreq) for RCC_GetClocksFreq
    stm32f10x_spi.o(i.SPI_I2S_DeInit) refers to stm32f10x_rcc.o(i.RCC_APB2PeriphResetCmd) for RCC_APB2PeriphResetCmd
    stm32f10x_spi.o(i.SPI_I2S_DeInit) refers to stm32f10x_rcc.o(i.RCC_APB1PeriphResetCmd) for RCC_APB1PeriphResetCmd
    stm32f10x_tim.o(i.TIM_DeInit) refers to stm32f10x_rcc.o(i.RCC_APB2PeriphResetCmd) for RCC_APB2PeriphResetCmd
    stm32f10x_tim.o(i.TIM_DeInit) refers to stm32f10x_rcc.o(i.RCC_APB1PeriphResetCmd) for RCC_APB1PeriphResetCmd
    stm32f10x_tim.o(i.TIM_ETRClockMode1Config) refers to stm32f10x_tim.o(i.TIM_ETRConfig) for TIM_ETRConfig
    stm32f10x_tim.o(i.TIM_ETRClockMode2Config) refers to stm32f10x_tim.o(i.TIM_ETRConfig) for TIM_ETRConfig
    stm32f10x_tim.o(i.TIM_ICInit) refers to stm32f10x_tim.o(i.TI1_Config) for TI1_Config
    stm32f10x_tim.o(i.TIM_ICInit) refers to stm32f10x_tim.o(i.TIM_SetIC1Prescaler) for TIM_SetIC1Prescaler
    stm32f10x_tim.o(i.TIM_ICInit) refers to stm32f10x_tim.o(i.TI2_Config) for TI2_Config
    stm32f10x_tim.o(i.TIM_ICInit) refers to stm32f10x_tim.o(i.TIM_SetIC2Prescaler) for TIM_SetIC2Prescaler
    stm32f10x_tim.o(i.TIM_ICInit) refers to stm32f10x_tim.o(i.TI3_Config) for TI3_Config
    stm32f10x_tim.o(i.TIM_ICInit) refers to stm32f10x_tim.o(i.TIM_SetIC3Prescaler) for TIM_SetIC3Prescaler
    stm32f10x_tim.o(i.TIM_ICInit) refers to stm32f10x_tim.o(i.TI4_Config) for TI4_Config
    stm32f10x_tim.o(i.TIM_ICInit) refers to stm32f10x_tim.o(i.TIM_SetIC4Prescaler) for TIM_SetIC4Prescaler
    stm32f10x_tim.o(i.TIM_ITRxExternalClockConfig) refers to stm32f10x_tim.o(i.TIM_SelectInputTrigger) for TIM_SelectInputTrigger
    stm32f10x_tim.o(i.TIM_PWMIConfig) refers to stm32f10x_tim.o(i.TI1_Config) for TI1_Config
    stm32f10x_tim.o(i.TIM_PWMIConfig) refers to stm32f10x_tim.o(i.TIM_SetIC1Prescaler) for TIM_SetIC1Prescaler
    stm32f10x_tim.o(i.TIM_PWMIConfig) refers to stm32f10x_tim.o(i.TI2_Config) for TI2_Config
    stm32f10x_tim.o(i.TIM_PWMIConfig) refers to stm32f10x_tim.o(i.TIM_SetIC2Prescaler) for TIM_SetIC2Prescaler
    stm32f10x_tim.o(i.TIM_TIxExternalClockConfig) refers to stm32f10x_tim.o(i.TI2_Config) for TI2_Config
    stm32f10x_tim.o(i.TIM_TIxExternalClockConfig) refers to stm32f10x_tim.o(i.TI1_Config) for TI1_Config
    stm32f10x_tim.o(i.TIM_TIxExternalClockConfig) refers to stm32f10x_tim.o(i.TIM_SelectInputTrigger) for TIM_SelectInputTrigger
    stm32f10x_wwdg.o(i.WWDG_DeInit) refers to stm32f10x_rcc.o(i.RCC_APB1PeriphResetCmd) for RCC_APB1PeriphResetCmd
    stm32f10x_adc.o(i.ADC_DeInit) refers to stm32f10x_rcc.o(i.RCC_APB2PeriphResetCmd) for RCC_APB2PeriphResetCmd
    entry.o(.ARM.Collect$$$$00000000) refers (Special) to entry10a.o(.ARM.Collect$$$$0000000F) for __rt_final_cpp
    entry.o(.ARM.Collect$$$$00000000) refers (Special) to entry11a.o(.ARM.Collect$$$$00000011) for __rt_final_exit
    entry.o(.ARM.Collect$$$$00000000) refers (Special) to entry12b.o(.ARM.Collect$$$$0000000E) for __rt_lib_shutdown_fini
    entry.o(.ARM.Collect$$$$00000000) refers (Special) to entry7b.o(.ARM.Collect$$$$00000008) for _main_clock
    entry.o(.ARM.Collect$$$$00000000) refers (Special) to entry8b.o(.ARM.Collect$$$$0000000A) for _main_cpp_init
    entry.o(.ARM.Collect$$$$00000000) refers (Special) to entry9a.o(.ARM.Collect$$$$0000000B) for _main_init
    entry.o(.ARM.Collect$$$$00000000) refers (Special) to entry5.o(.ARM.Collect$$$$00000004) for _main_scatterload
    entry.o(.ARM.Collect$$$$00000000) refers (Special) to entry2.o(.ARM.Collect$$$$00000001) for _main_stk
    ldiv.o(.text) refers to uldiv.o(.text) for __aeabi_uldivmod
    printfb.o(i.__0fprintf$bare) refers to printfb.o(i._printf_core) for _printf_core
    printfb.o(i.__0fprintf$bare) refers to usart.o(i.fputc) for fputc
    printfb.o(i.__0printf$bare) refers to printfb.o(i._printf_core) for _printf_core
    printfb.o(i.__0printf$bare) refers to usart.o(i.fputc) for fputc
    printfb.o(i.__0printf$bare) refers to usart.o(.data) for __stdout
    printfb.o(i.__0snprintf$bare) refers to printfb.o(i._printf_core) for _printf_core
    printfb.o(i.__0snprintf$bare) refers to printfb.o(i._snputc) for _snputc
    printfb.o(i.__0sprintf$bare) refers to printfb.o(i._printf_core) for _printf_core
    printfb.o(i.__0sprintf$bare) refers to printfb.o(i._sputc) for _sputc
    printfb.o(i.__0vfprintf$bare) refers to printfb.o(i._printf_core) for _printf_core
    printfb.o(i.__0vfprintf$bare) refers to usart.o(i.fputc) for fputc
    printfb.o(i.__0vprintf$bare) refers to printfb.o(i._printf_core) for _printf_core
    printfb.o(i.__0vprintf$bare) refers to usart.o(i.fputc) for fputc
    printfb.o(i.__0vprintf$bare) refers to usart.o(.data) for __stdout
    printfb.o(i.__0vsnprintf$bare) refers to printfb.o(i._printf_core) for _printf_core
    printfb.o(i.__0vsnprintf$bare) refers to printfb.o(i._snputc) for _snputc
    printfb.o(i.__0vsprintf$bare) refers to printfb.o(i._printf_core) for _printf_core
    printfb.o(i.__0vsprintf$bare) refers to printfb.o(i._sputc) for _sputc
    printf0.o(i.__0fprintf$0) refers to printf0.o(i._printf_core) for _printf_core
    printf0.o(i.__0fprintf$0) refers to usart.o(i.fputc) for fputc
    printf0.o(i.__0printf$0) refers to printf0.o(i._printf_core) for _printf_core
    printf0.o(i.__0printf$0) refers to usart.o(i.fputc) for fputc
    printf0.o(i.__0printf$0) refers to usart.o(.data) for __stdout
    printf0.o(i.__0snprintf$0) refers to printf0.o(i._printf_core) for _printf_core
    printf0.o(i.__0snprintf$0) refers to printf0.o(i._snputc) for _snputc
    printf0.o(i.__0sprintf$0) refers to printf0.o(i._printf_core) for _printf_core
    printf0.o(i.__0sprintf$0) refers to printf0.o(i._sputc) for _sputc
    printf0.o(i.__0vfprintf$0) refers to printf0.o(i._printf_core) for _printf_core
    printf0.o(i.__0vfprintf$0) refers to usart.o(i.fputc) for fputc
    printf0.o(i.__0vprintf$0) refers to printf0.o(i._printf_core) for _printf_core
    printf0.o(i.__0vprintf$0) refers to usart.o(i.fputc) for fputc
    printf0.o(i.__0vprintf$0) refers to usart.o(.data) for __stdout
    printf0.o(i.__0vsnprintf$0) refers to printf0.o(i._printf_core) for _printf_core
    printf0.o(i.__0vsnprintf$0) refers to printf0.o(i._snputc) for _snputc
    printf0.o(i.__0vsprintf$0) refers to printf0.o(i._printf_core) for _printf_core
    printf0.o(i.__0vsprintf$0) refers to printf0.o(i._sputc) for _sputc
    printf1.o(i.__0fprintf$1) refers to printf1.o(i._printf_core) for _printf_core
    printf1.o(i.__0fprintf$1) refers to usart.o(i.fputc) for fputc
    printf1.o(i.__0printf$1) refers to printf1.o(i._printf_core) for _printf_core
    printf1.o(i.__0printf$1) refers to usart.o(i.fputc) for fputc
    printf1.o(i.__0printf$1) refers to usart.o(.data) for __stdout
    printf1.o(i.__0snprintf$1) refers to printf1.o(i._printf_core) for _printf_core
    printf1.o(i.__0snprintf$1) refers to printf1.o(i._snputc) for _snputc
    printf1.o(i.__0sprintf$1) refers to printf1.o(i._printf_core) for _printf_core
    printf1.o(i.__0sprintf$1) refers to printf1.o(i._sputc) for _sputc
    printf1.o(i.__0vfprintf$1) refers to printf1.o(i._printf_core) for _printf_core
    printf1.o(i.__0vfprintf$1) refers to usart.o(i.fputc) for fputc
    printf1.o(i.__0vprintf$1) refers to printf1.o(i._printf_core) for _printf_core
    printf1.o(i.__0vprintf$1) refers to usart.o(i.fputc) for fputc
    printf1.o(i.__0vprintf$1) refers to usart.o(.data) for __stdout
    printf1.o(i.__0vsnprintf$1) refers to printf1.o(i._printf_core) for _printf_core
    printf1.o(i.__0vsnprintf$1) refers to printf1.o(i._snputc) for _snputc
    printf1.o(i.__0vsprintf$1) refers to printf1.o(i._printf_core) for _printf_core
    printf1.o(i.__0vsprintf$1) refers to printf1.o(i._sputc) for _sputc
    printf1.o(i._printf_core) refers to uidiv.o(.text) for __aeabi_uidivmod
    printf2.o(i.__0fprintf$2) refers to printf2.o(i._printf_core) for _printf_core
    printf2.o(i.__0fprintf$2) refers to usart.o(i.fputc) for fputc
    printf2.o(i.__0printf$2) refers to printf2.o(i._printf_core) for _printf_core
    printf2.o(i.__0printf$2) refers to usart.o(i.fputc) for fputc
    printf2.o(i.__0printf$2) refers to usart.o(.data) for __stdout
    printf2.o(i.__0snprintf$2) refers to printf2.o(i._printf_core) for _printf_core
    printf2.o(i.__0snprintf$2) refers to printf2.o(i._snputc) for _snputc
    printf2.o(i.__0sprintf$2) refers to printf2.o(i._printf_core) for _printf_core
    printf2.o(i.__0sprintf$2) refers to printf2.o(i._sputc) for _sputc
    printf2.o(i.__0vfprintf$2) refers to printf2.o(i._printf_core) for _printf_core
    printf2.o(i.__0vfprintf$2) refers to usart.o(i.fputc) for fputc
    printf2.o(i.__0vprintf$2) refers to printf2.o(i._printf_core) for _printf_core
    printf2.o(i.__0vprintf$2) refers to usart.o(i.fputc) for fputc
    printf2.o(i.__0vprintf$2) refers to usart.o(.data) for __stdout
    printf2.o(i.__0vsnprintf$2) refers to printf2.o(i._printf_core) for _printf_core
    printf2.o(i.__0vsnprintf$2) refers to printf2.o(i._snputc) for _snputc
    printf2.o(i.__0vsprintf$2) refers to printf2.o(i._printf_core) for _printf_core
    printf2.o(i.__0vsprintf$2) refers to printf2.o(i._sputc) for _sputc
    printf3.o(i.__0fprintf$3) refers to printf3.o(i._printf_core) for _printf_core
    printf3.o(i.__0fprintf$3) refers to usart.o(i.fputc) for fputc
    printf3.o(i.__0printf$3) refers to printf3.o(i._printf_core) for _printf_core
    printf3.o(i.__0printf$3) refers to usart.o(i.fputc) for fputc
    printf3.o(i.__0printf$3) refers to usart.o(.data) for __stdout
    printf3.o(i.__0snprintf$3) refers to printf3.o(i._printf_core) for _printf_core
    printf3.o(i.__0snprintf$3) refers to printf3.o(i._snputc) for _snputc
    printf3.o(i.__0sprintf$3) refers to printf3.o(i._printf_core) for _printf_core
    printf3.o(i.__0sprintf$3) refers to printf3.o(i._sputc) for _sputc
    printf3.o(i.__0vfprintf$3) refers to printf3.o(i._printf_core) for _printf_core
    printf3.o(i.__0vfprintf$3) refers to usart.o(i.fputc) for fputc
    printf3.o(i.__0vprintf$3) refers to printf3.o(i._printf_core) for _printf_core
    printf3.o(i.__0vprintf$3) refers to usart.o(i.fputc) for fputc
    printf3.o(i.__0vprintf$3) refers to usart.o(.data) for __stdout
    printf3.o(i.__0vsnprintf$3) refers to printf3.o(i._printf_core) for _printf_core
    printf3.o(i.__0vsnprintf$3) refers to printf3.o(i._snputc) for _snputc
    printf3.o(i.__0vsprintf$3) refers to printf3.o(i._printf_core) for _printf_core
    printf3.o(i.__0vsprintf$3) refers to printf3.o(i._sputc) for _sputc
    printf3.o(i._printf_core) refers to uidiv.o(.text) for __aeabi_uidivmod
    printf4.o(i.__0fprintf$4) refers to printf4.o(i._printf_core) for _printf_core
    printf4.o(i.__0fprintf$4) refers to usart.o(i.fputc) for fputc
    printf4.o(i.__0printf$4) refers to printf4.o(i._printf_core) for _printf_core
    printf4.o(i.__0printf$4) refers to usart.o(i.fputc) for fputc
    printf4.o(i.__0printf$4) refers to usart.o(.data) for __stdout
    printf4.o(i.__0snprintf$4) refers to printf4.o(i._printf_core) for _printf_core
    printf4.o(i.__0snprintf$4) refers to printf4.o(i._snputc) for _snputc
    printf4.o(i.__0sprintf$4) refers to printf4.o(i._printf_core) for _printf_core
    printf4.o(i.__0sprintf$4) refers to printf4.o(i._sputc) for _sputc
    printf4.o(i.__0vfprintf$4) refers to printf4.o(i._printf_core) for _printf_core
    printf4.o(i.__0vfprintf$4) refers to usart.o(i.fputc) for fputc
    printf4.o(i.__0vprintf$4) refers to printf4.o(i._printf_core) for _printf_core
    printf4.o(i.__0vprintf$4) refers to usart.o(i.fputc) for fputc
    printf4.o(i.__0vprintf$4) refers to usart.o(.data) for __stdout
    printf4.o(i.__0vsnprintf$4) refers to printf4.o(i._printf_core) for _printf_core
    printf4.o(i.__0vsnprintf$4) refers to printf4.o(i._snputc) for _snputc
    printf4.o(i.__0vsprintf$4) refers to printf4.o(i._printf_core) for _printf_core
    printf4.o(i.__0vsprintf$4) refers to printf4.o(i._sputc) for _sputc
    printf4.o(i._printf_core) refers to uldiv.o(.text) for __aeabi_uldivmod
    printf5.o(i.__0fprintf$5) refers to printf5.o(i._printf_core) for _printf_core
    printf5.o(i.__0fprintf$5) refers to usart.o(i.fputc) for fputc
    printf5.o(i.__0printf$5) refers to printf5.o(i._printf_core) for _printf_core
    printf5.o(i.__0printf$5) refers to usart.o(i.fputc) for fputc
    printf5.o(i.__0printf$5) refers to usart.o(.data) for __stdout
    printf5.o(i.__0snprintf$5) refers to printf5.o(i._printf_core) for _printf_core
    printf5.o(i.__0snprintf$5) refers to printf5.o(i._snputc) for _snputc
    printf5.o(i.__0sprintf$5) refers to printf5.o(i._printf_core) for _printf_core
    printf5.o(i.__0sprintf$5) refers to printf5.o(i._sputc) for _sputc
    printf5.o(i.__0vfprintf$5) refers to printf5.o(i._printf_core) for _printf_core
    printf5.o(i.__0vfprintf$5) refers to usart.o(i.fputc) for fputc
    printf5.o(i.__0vprintf$5) refers to printf5.o(i._printf_core) for _printf_core
    printf5.o(i.__0vprintf$5) refers to usart.o(i.fputc) for fputc
    printf5.o(i.__0vprintf$5) refers to usart.o(.data) for __stdout
    printf5.o(i.__0vsnprintf$5) refers to printf5.o(i._printf_core) for _printf_core
    printf5.o(i.__0vsnprintf$5) refers to printf5.o(i._snputc) for _snputc
    printf5.o(i.__0vsprintf$5) refers to printf5.o(i._printf_core) for _printf_core
    printf5.o(i.__0vsprintf$5) refers to printf5.o(i._sputc) for _sputc
    printf5.o(i._printf_core) refers to uldiv.o(.text) for __aeabi_uldivmod
    printf6.o(i.__0fprintf$6) refers to printf6.o(i._printf_core) for _printf_core
    printf6.o(i.__0fprintf$6) refers to usart.o(i.fputc) for fputc
    printf6.o(i.__0printf$6) refers to printf6.o(i._printf_core) for _printf_core
    printf6.o(i.__0printf$6) refers to usart.o(i.fputc) for fputc
    printf6.o(i.__0printf$6) refers to usart.o(.data) for __stdout
    printf6.o(i.__0snprintf$6) refers to printf6.o(i._printf_core) for _printf_core
    printf6.o(i.__0snprintf$6) refers to printf6.o(i._snputc) for _snputc
    printf6.o(i.__0sprintf$6) refers to printf6.o(i._printf_core) for _printf_core
    printf6.o(i.__0sprintf$6) refers to printf6.o(i._sputc) for _sputc
    printf6.o(i.__0vfprintf$6) refers to printf6.o(i._printf_core) for _printf_core
    printf6.o(i.__0vfprintf$6) refers to usart.o(i.fputc) for fputc
    printf6.o(i.__0vprintf$6) refers to printf6.o(i._printf_core) for _printf_core
    printf6.o(i.__0vprintf$6) refers to usart.o(i.fputc) for fputc
    printf6.o(i.__0vprintf$6) refers to usart.o(.data) for __stdout
    printf6.o(i.__0vsnprintf$6) refers to printf6.o(i._printf_core) for _printf_core
    printf6.o(i.__0vsnprintf$6) refers to printf6.o(i._snputc) for _snputc
    printf6.o(i.__0vsprintf$6) refers to printf6.o(i._printf_core) for _printf_core
    printf6.o(i.__0vsprintf$6) refers to printf6.o(i._sputc) for _sputc
    printf6.o(i._printf_core) refers to printf6.o(i._printf_pre_padding) for _printf_pre_padding
    printf6.o(i._printf_core) refers to uidiv.o(.text) for __aeabi_uidivmod
    printf6.o(i._printf_core) refers to printf6.o(i._printf_post_padding) for _printf_post_padding
    printf7.o(i.__0fprintf$7) refers to printf7.o(i._printf_core) for _printf_core
    printf7.o(i.__0fprintf$7) refers to usart.o(i.fputc) for fputc
    printf7.o(i.__0printf$7) refers to printf7.o(i._printf_core) for _printf_core
    printf7.o(i.__0printf$7) refers to usart.o(i.fputc) for fputc
    printf7.o(i.__0printf$7) refers to usart.o(.data) for __stdout
    printf7.o(i.__0snprintf$7) refers to printf7.o(i._printf_core) for _printf_core
    printf7.o(i.__0snprintf$7) refers to printf7.o(i._snputc) for _snputc
    printf7.o(i.__0sprintf$7) refers to printf7.o(i._printf_core) for _printf_core
    printf7.o(i.__0sprintf$7) refers to printf7.o(i._sputc) for _sputc
    printf7.o(i.__0vfprintf$7) refers to printf7.o(i._printf_core) for _printf_core
    printf7.o(i.__0vfprintf$7) refers to usart.o(i.fputc) for fputc
    printf7.o(i.__0vprintf$7) refers to printf7.o(i._printf_core) for _printf_core
    printf7.o(i.__0vprintf$7) refers to usart.o(i.fputc) for fputc
    printf7.o(i.__0vprintf$7) refers to usart.o(.data) for __stdout
    printf7.o(i.__0vsnprintf$7) refers to printf7.o(i._printf_core) for _printf_core
    printf7.o(i.__0vsnprintf$7) refers to printf7.o(i._snputc) for _snputc
    printf7.o(i.__0vsprintf$7) refers to printf7.o(i._printf_core) for _printf_core
    printf7.o(i.__0vsprintf$7) refers to printf7.o(i._sputc) for _sputc
    printf7.o(i._printf_core) refers to printf7.o(i._printf_pre_padding) for _printf_pre_padding
    printf7.o(i._printf_core) refers to uldiv.o(.text) for __aeabi_uldivmod
    printf7.o(i._printf_core) refers to printf7.o(i._printf_post_padding) for _printf_post_padding
    printf8.o(i.__0fprintf$8) refers to printf8.o(i._printf_core) for _printf_core
    printf8.o(i.__0fprintf$8) refers to usart.o(i.fputc) for fputc
    printf8.o(i.__0printf$8) refers to printf8.o(i._printf_core) for _printf_core
    printf8.o(i.__0printf$8) refers to usart.o(i.fputc) for fputc
    printf8.o(i.__0printf$8) refers to usart.o(.data) for __stdout
    printf8.o(i.__0snprintf$8) refers to printf8.o(i._printf_core) for _printf_core
    printf8.o(i.__0snprintf$8) refers to printf8.o(i._snputc) for _snputc
    printf8.o(i.__0sprintf$8) refers to printf8.o(i._printf_core) for _printf_core
    printf8.o(i.__0sprintf$8) refers to printf8.o(i._sputc) for _sputc
    printf8.o(i.__0vfprintf$8) refers to printf8.o(i._printf_core) for _printf_core
    printf8.o(i.__0vfprintf$8) refers to usart.o(i.fputc) for fputc
    printf8.o(i.__0vprintf$8) refers to printf8.o(i._printf_core) for _printf_core
    printf8.o(i.__0vprintf$8) refers to usart.o(i.fputc) for fputc
    printf8.o(i.__0vprintf$8) refers to usart.o(.data) for __stdout
    printf8.o(i.__0vsnprintf$8) refers to printf8.o(i._printf_core) for _printf_core
    printf8.o(i.__0vsnprintf$8) refers to printf8.o(i._snputc) for _snputc
    printf8.o(i.__0vsprintf$8) refers to printf8.o(i._printf_core) for _printf_core
    printf8.o(i.__0vsprintf$8) refers to printf8.o(i._sputc) for _sputc
    printf8.o(i._printf_core) refers to printf8.o(i._printf_pre_padding) for _printf_pre_padding
    printf8.o(i._printf_core) refers to uldiv.o(.text) for __aeabi_uldivmod
    printf8.o(i._printf_core) refers to printf8.o(i._printf_post_padding) for _printf_post_padding
    printfa.o(i.__0fprintf) refers (Special) to iusefp.o(.text) for __I$use$fp
    printfa.o(i.__0fprintf) refers to printfa.o(i._printf_core) for _printf_core
    printfa.o(i.__0fprintf) refers to usart.o(i.fputc) for fputc
    printfa.o(i.__0printf) refers (Special) to iusefp.o(.text) for __I$use$fp
    printfa.o(i.__0printf) refers to printfa.o(i._printf_core) for _printf_core
    printfa.o(i.__0printf) refers to usart.o(i.fputc) for fputc
    printfa.o(i.__0printf) refers to usart.o(.data) for __stdout
    printfa.o(i.__0snprintf) refers (Special) to iusefp.o(.text) for __I$use$fp
    printfa.o(i.__0snprintf) refers to printfa.o(i._printf_core) for _printf_core
    printfa.o(i.__0snprintf) refers to printfa.o(i._snputc) for _snputc
    printfa.o(i.__0sprintf) refers (Special) to iusefp.o(.text) for __I$use$fp
    printfa.o(i.__0sprintf) refers to printfa.o(i._printf_core) for _printf_core
    printfa.o(i.__0sprintf) refers to printfa.o(i._sputc) for _sputc
    printfa.o(i.__0vfprintf) refers (Special) to iusefp.o(.text) for __I$use$fp
    printfa.o(i.__0vfprintf) refers to printfa.o(i._printf_core) for _printf_core
    printfa.o(i.__0vfprintf) refers to usart.o(i.fputc) for fputc
    printfa.o(i.__0vprintf) refers (Special) to iusefp.o(.text) for __I$use$fp
    printfa.o(i.__0vprintf) refers to printfa.o(i._printf_core) for _printf_core
    printfa.o(i.__0vprintf) refers to usart.o(i.fputc) for fputc
    printfa.o(i.__0vprintf) refers to usart.o(.data) for __stdout
    printfa.o(i.__0vsnprintf) refers (Special) to iusefp.o(.text) for __I$use$fp
    printfa.o(i.__0vsnprintf) refers to printfa.o(i._printf_core) for _printf_core
    printfa.o(i.__0vsnprintf) refers to printfa.o(i._snputc) for _snputc
    printfa.o(i.__0vsprintf) refers (Special) to iusefp.o(.text) for __I$use$fp
    printfa.o(i.__0vsprintf) refers to printfa.o(i._printf_core) for _printf_core
    printfa.o(i.__0vsprintf) refers to printfa.o(i._sputc) for _sputc
    printfa.o(i._fp_digits) refers (Special) to iusefp.o(.text) for __I$use$fp
    printfa.o(i._fp_digits) refers to dmul.o(.text) for __aeabi_dmul
    printfa.o(i._fp_digits) refers to ddiv.o(.text) for __aeabi_ddiv
    printfa.o(i._fp_digits) refers to cdrcmple.o(.text) for __aeabi_cdrcmple
    printfa.o(i._fp_digits) refers to dadd.o(.text) for __aeabi_dadd
    printfa.o(i._fp_digits) refers to dfixul.o(.text) for __aeabi_d2ulz
    printfa.o(i._fp_digits) refers to uldiv.o(.text) for __aeabi_uldivmod
    printfa.o(i._printf_core) refers (Special) to iusefp.o(.text) for __I$use$fp
    printfa.o(i._printf_core) refers to printfa.o(i._printf_pre_padding) for _printf_pre_padding
    printfa.o(i._printf_core) refers to uldiv.o(.text) for __aeabi_uldivmod
    printfa.o(i._printf_core) refers to printfa.o(i._printf_post_padding) for _printf_post_padding
    printfa.o(i._printf_core) refers to printfa.o(i._fp_digits) for _fp_digits
    printfa.o(i._printf_core) refers to uidiv.o(.text) for __aeabi_uidivmod
    printfa.o(i._printf_post_padding) refers (Special) to iusefp.o(.text) for __I$use$fp
    printfa.o(i._printf_pre_padding) refers (Special) to iusefp.o(.text) for __I$use$fp
    printfa.o(i._snputc) refers (Special) to iusefp.o(.text) for __I$use$fp
    printfa.o(i._sputc) refers (Special) to iusefp.o(.text) for __I$use$fp
    fadd.o(.text) refers (Special) to iusefp.o(.text) for __I$use$fp
    fadd.o(.text) refers to fepilogue.o(.text) for _float_epilogue
    fmul.o(.text) refers (Special) to iusefp.o(.text) for __I$use$fp
    fdiv.o(.text) refers (Special) to iusefp.o(.text) for __I$use$fp
    fdiv.o(.text) refers to fepilogue.o(.text) for _float_round
    dadd.o(.text) refers (Special) to iusefp.o(.text) for __I$use$fp
    dadd.o(.text) refers to llshl.o(.text) for __aeabi_llsl
    dadd.o(.text) refers to llsshr.o(.text) for __aeabi_lasr
    dadd.o(.text) refers to depilogue.o(.text) for _double_epilogue
    dmul.o(.text) refers (Special) to iusefp.o(.text) for __I$use$fp
    dmul.o(.text) refers to depilogue.o(.text) for _double_epilogue
    ddiv.o(.text) refers (Special) to iusefp.o(.text) for __I$use$fp
    ddiv.o(.text) refers to depilogue.o(.text) for _double_round
    fflti.o(.text) refers (Special) to iusefp.o(.text) for __I$use$fp
    fflti.o(.text) refers to fepilogue.o(.text) for _float_epilogue
    ffltui.o(.text) refers (Special) to iusefp.o(.text) for __I$use$fp
    ffltui.o(.text) refers to fepilogue.o(.text) for _float_epilogue
    ffixui.o(.text) refers (Special) to iusefp.o(.text) for __I$use$fp
    dfixi.o(.text) refers (Special) to iusefp.o(.text) for __I$use$fp
    dfixi.o(.text) refers to llushr.o(.text) for __aeabi_llsr
    f2d.o(.text) refers (Special) to iusefp.o(.text) for __I$use$fp
    d2f.o(.text) refers (Special) to iusefp.o(.text) for __I$use$fp
    d2f.o(.text) refers to fepilogue.o(.text) for _float_round
    cfcmple.o(.text) refers (Special) to iusefp.o(.text) for __I$use$fp
    cfrcmple.o(.text) refers (Special) to iusefp.o(.text) for __I$use$fp
    entry2.o(.ARM.Collect$$$$00000001) refers to entry2.o(.ARM.Collect$$$$00002712) for __lit__00000000
    entry2.o(.ARM.Collect$$$$00002712) refers to startup_stm32f10x_hd.o(STACK) for __initial_sp
    entry2.o(__vectab_stack_and_reset_area) refers to startup_stm32f10x_hd.o(STACK) for __initial_sp
    entry2.o(__vectab_stack_and_reset_area) refers to entry.o(.ARM.Collect$$$$00000000) for __main
    entry5.o(.ARM.Collect$$$$00000004) refers to init.o(.text) for __scatterload
    entry9a.o(.ARM.Collect$$$$0000000B) refers to main.o(i.main) for main
    entry9b.o(.ARM.Collect$$$$0000000C) refers to main.o(i.main) for main
    uldiv.o(.text) refers to llushr.o(.text) for __aeabi_llsr
    uldiv.o(.text) refers to llshl.o(.text) for __aeabi_llsl
    depilogue.o(.text) refers to llshl.o(.text) for __aeabi_llsl
    depilogue.o(.text) refers to llushr.o(.text) for __aeabi_llsr
    dfixul.o(.text) refers to llushr.o(.text) for __aeabi_llsr
    dfixul.o(.text) refers to llshl.o(.text) for __aeabi_llsl
    init.o(.text) refers to entry5.o(.ARM.Collect$$$$00000004) for __main_after_scatterload


==============================================================================

Removing Unused input sections from the image.

    Removing system_stm32f10x.o(i.SystemCoreClockUpdate), (164 bytes).
    Removing tft.o(i.Draw_Circle), (158 bytes).
    Removing tft.o(i.LCD_ShowChinese), (140 bytes).
    Removing tft.o(i.LCD_ShowChinese12x12), (328 bytes).
    Removing tft.o(i.LCD_ShowChinese16x16), (312 bytes).
    Removing tft.o(i.LCD_ShowChinese24x24), (328 bytes).
    Removing tft.o(i.LCD_ShowChinese32x32), (312 bytes).
    Removing tft.o(i.LCD_ShowFloatNum1), (164 bytes).
    Removing tft.o(i.LCD_ShowIntNum), (150 bytes).
    Removing tft.o(i.LCD_ShowPicture), (152 bytes).
    Removing tft.o(i.MYDMA_Config), (92 bytes).
    Removing tft.o(i.mypow), (22 bytes).
    Removing w25q64.o(i.W25QXX_Erase_Chip), (44 bytes).
    Removing w25q64.o(i.W25QXX_PowerDown), (40 bytes).
    Removing w25q64.o(i.W25QXX_Write_Disable), (32 bytes).
    Removing w25q64.o(i.W25QXX_Write_SR), (40 bytes).
    Removing w25q64.o(.data), (2 bytes).
    Removing sd.o(i.SD_GetState), (26 bytes).
    Removing sd.o(i.SD_PowerOFF), (12 bytes).
    Removing sd.o(i.SD_SendStatus), (84 bytes).
    Removing malloc.o(i.mymemcpy), (26 bytes).
    Removing malloc.o(i.myrealloc), (68 bytes).
    Removing sd_iface.o(.constdata), (10 bytes).
    Removing pwmout.o(i.PWM_OUT_Init), (2 bytes).
    Removing power.o(i.IIC_SendACK), (48 bytes).
    Removing power.o(i.IP5328P_BAT_LOW), (28 bytes).
    Removing power.o(i.IP5328P_BOOST), (24 bytes).
    Removing power.o(i.IP5328P_BatOCV), (132 bytes).
    Removing power.o(i.IP5328P_DCP_DIG), (24 bytes).
    Removing power.o(i.IP5328P_GHG_State), (16 bytes).
    Removing power.o(i.IP5328P_KEY_IN), (24 bytes).
    Removing power.o(i.IP5328P_MOS_ON), (24 bytes).
    Removing power.o(i.IP5328P_OUT1_Current), (124 bytes).
    Removing power.o(i.IP5328P_OUT2_Current), (124 bytes).
    Removing power.o(i.IP5328P_Power), (112 bytes).
    Removing power.o(i.IP5328P_QC_State), (24 bytes).
    Removing power.o(i.IP5328P_SYS_CTL14), (42 bytes).
    Removing power.o(i.IP5328P_SYS_Status), (24 bytes).
    Removing power.o(i.IP5328P_TypeC_Ability), (48 bytes).
    Removing power.o(i.IP5328P_TypeC_Current), (124 bytes).
    Removing power.o(i.IP5328P_TypeC_Flag), (42 bytes).
    Removing power.o(i.IP5328P_VIN_Current), (124 bytes).
    Removing power.o(i.IP5328P_VinTypeC_State), (24 bytes).
    Removing power.o(i.IP5328P_Write), (46 bytes).
    Removing sys.o(.emb_text), (6 bytes).
    Removing sys.o(i.WFI_SET), (4 bytes).
    Removing usart.o(i.NVIC_Configuration), (38 bytes).
    Removing usart.o(i.TIM7_Init), (12 bytes).
    Removing usart.o(i.TIM7_Mode_Config), (68 bytes).
    Removing usart.o(i.TIM7_NVIC_Config), (42 bytes).
    Removing usart.o(i.UART4_Config), (200 bytes).
    Removing usart.o(i.UART4_DMA_Config), (72 bytes).
    Removing usart.o(i.UART4_DMA_Enable), (32 bytes).
    Removing usart.o(i.Uart4_SendByte), (36 bytes).
    Removing usart.o(i.Uart4_SendString), (44 bytes).
    Removing usart.o(i._sys_exit), (4 bytes).
    Removing arithmetic.o(i.shell_sort), (66 bytes).
    Removing vl53l0x_i2c.o(i.VL53L0X_i2c_init), (52 bytes).
    Removing vl53l0x_i2c.o(i.VL53L0X_read_byte), (32 bytes).
    Removing vl53l0x_i2c.o(i.VL53L0X_read_dword), (58 bytes).
    Removing vl53l0x_i2c.o(i.VL53L0X_read_multi), (40 bytes).
    Removing vl53l0x_i2c.o(i.VL53L0X_read_word), (42 bytes).
    Removing vl53l0x_i2c.o(i.VL53L0X_write_byte), (26 bytes).
    Removing vl53l0x_i2c.o(i.VL53L0X_write_dword), (52 bytes).
    Removing vl53l0x_i2c.o(i.VL53L0X_write_multi), (40 bytes).
    Removing vl53l0x_i2c.o(i.VL53L0X_write_word), (86 bytes).
    Removing vl53l0x_i2c.o(i.VL_IIC_Ack), (52 bytes).
    Removing vl53l0x_i2c.o(i.VL_IIC_NAck), (52 bytes).
    Removing vl53l0x_i2c.o(i.VL_IIC_Read_1Byte), (74 bytes).
    Removing vl53l0x_i2c.o(i.VL_IIC_Read_Byte), (88 bytes).
    Removing vl53l0x_i2c.o(i.VL_IIC_Read_nByte), (106 bytes).
    Removing vl53l0x_i2c.o(i.VL_IIC_Send_Byte), (88 bytes).
    Removing vl53l0x_i2c.o(i.VL_IIC_Start), (52 bytes).
    Removing vl53l0x_i2c.o(i.VL_IIC_Stop), (48 bytes).
    Removing vl53l0x_i2c.o(i.VL_IIC_Wait_Ack), (80 bytes).
    Removing vl53l0x_i2c.o(i.VL_IIC_Write_1Byte), (60 bytes).
    Removing vl53l0x_i2c.o(i.VL_IIC_Write_nByte), (80 bytes).
    Removing vl53l0x_i2c.o(i.VL_SDA_IN), (36 bytes).
    Removing vl53l0x_i2c.o(i.VL_SDA_OUT), (44 bytes).
    Removing vl53l0x_platform.o(i.VL53L0X_PollingDelay), (26 bytes).
    Removing vl53l0x_platform.o(i.VL53L0X_RdByte), (44 bytes).
    Removing vl53l0x_platform.o(i.VL53L0X_RdDWord), (44 bytes).
    Removing vl53l0x_platform.o(i.VL53L0X_RdWord), (44 bytes).
    Removing vl53l0x_platform.o(i.VL53L0X_ReadMulti), (54 bytes).
    Removing vl53l0x_platform.o(i.VL53L0X_UpdateByte), (82 bytes).
    Removing vl53l0x_platform.o(i.VL53L0X_WrByte), (44 bytes).
    Removing vl53l0x_platform.o(i.VL53L0X_WrDWord), (44 bytes).
    Removing vl53l0x_platform.o(i.VL53L0X_WrWord), (44 bytes).
    Removing vl53l0x_platform.o(i.VL53L0X_WriteMulti), (60 bytes).
    Removing ff.o(i.dir_remove), (106 bytes).
    Removing ff.o(i.f_chmod), (112 bytes).
    Removing ff.o(i.f_closedir), (22 bytes).
    Removing ff.o(i.f_getlabel), (190 bytes).
    Removing ff.o(i.f_gets), (82 bytes).
    Removing ff.o(i.f_mkdir), (380 bytes).
    Removing ff.o(i.f_mkfs), (1608 bytes).
    Removing ff.o(i.f_printf), (628 bytes).
    Removing ff.o(i.f_putc), (64 bytes).
    Removing ff.o(i.f_puts), (74 bytes).
    Removing ff.o(i.f_rename), (290 bytes).
    Removing ff.o(i.f_setlabel), (500 bytes).
    Removing ff.o(i.f_stat), (84 bytes).
    Removing ff.o(i.f_truncate), (184 bytes).
    Removing ff.o(i.f_unlink), (190 bytes).
    Removing ff.o(i.f_utime), (110 bytes).
    Removing ff.o(i.f_write), (490 bytes).
    Removing ff.o(i.putc_bfd), (68 bytes).
    Removing exfuns.o(.bss), (68 bytes).
    Removing fattester.o(i.mf_close), (20 bytes).
    Removing fattester.o(i.mf_closedir), (16 bytes).
    Removing fattester.o(i.mf_fmkfs), (20 bytes).
    Removing fattester.o(i.mf_getlabel), (132 bytes).
    Removing fattester.o(i.mf_gets), (76 bytes).
    Removing fattester.o(i.mf_lseek), (20 bytes).
    Removing fattester.o(i.mf_mkdir), (12 bytes).
    Removing fattester.o(i.mf_mount), (24 bytes).
    Removing fattester.o(i.mf_open), (28 bytes).
    Removing fattester.o(i.mf_opendir), (20 bytes).
    Removing fattester.o(i.mf_putc), (24 bytes).
    Removing fattester.o(i.mf_puts), (24 bytes).
    Removing fattester.o(i.mf_read), (344 bytes).
    Removing fattester.o(i.mf_readdir), (404 bytes).
    Removing fattester.o(i.mf_rename), (16 bytes).
    Removing fattester.o(i.mf_scan_files), (144 bytes).
    Removing fattester.o(i.mf_setlabel), (92 bytes).
    Removing fattester.o(i.mf_showfree), (168 bytes).
    Removing fattester.o(i.mf_size), (12 bytes).
    Removing fattester.o(i.mf_tell), (12 bytes).
    Removing fattester.o(i.mf_unlink), (12 bytes).
    Removing fattester.o(i.mf_write), (184 bytes).
    Removing text.o(i.Show_Str_Mid), (102 bytes).
    Removing bmp.o(i.minibmp_decode), (1116 bytes).
    Removing gif.o(i.gif_quit), (12 bytes).
    Removing piclib.o(i.piclib_alpha_blend), (48 bytes).
    Removing core_cm3.o(.emb_text), (32 bytes).
    Removing startup_stm32f10x_hd.o(HEAP), (512 bytes).
    Removing misc.o(i.NVIC_SetVectorTable), (20 bytes).
    Removing misc.o(i.NVIC_SystemLPConfig), (32 bytes).
    Removing stm32f10x_gpio.o(i.GPIO_AFIODeInit), (20 bytes).
    Removing stm32f10x_gpio.o(i.GPIO_DeInit), (200 bytes).
    Removing stm32f10x_gpio.o(i.GPIO_ETH_MediaInterfaceConfig), (12 bytes).
    Removing stm32f10x_gpio.o(i.GPIO_EventOutputCmd), (12 bytes).
    Removing stm32f10x_gpio.o(i.GPIO_EventOutputConfig), (32 bytes).
    Removing stm32f10x_gpio.o(i.GPIO_PinLockConfig), (18 bytes).
    Removing stm32f10x_gpio.o(i.GPIO_ReadInputData), (8 bytes).
    Removing stm32f10x_gpio.o(i.GPIO_ReadOutputData), (8 bytes).
    Removing stm32f10x_gpio.o(i.GPIO_ReadOutputDataBit), (18 bytes).
    Removing stm32f10x_gpio.o(i.GPIO_StructInit), (16 bytes).
    Removing stm32f10x_gpio.o(i.GPIO_Write), (4 bytes).
    Removing stm32f10x_gpio.o(i.GPIO_WriteBit), (10 bytes).
    Removing stm32f10x_rcc.o(i.RCC_APB1PeriphResetCmd), (32 bytes).
    Removing stm32f10x_rcc.o(i.RCC_AdjustHSICalibrationValue), (24 bytes).
    Removing stm32f10x_rcc.o(i.RCC_BackupResetCmd), (12 bytes).
    Removing stm32f10x_rcc.o(i.RCC_ClearFlag), (20 bytes).
    Removing stm32f10x_rcc.o(i.RCC_ClearITPendingBit), (12 bytes).
    Removing stm32f10x_rcc.o(i.RCC_ClockSecuritySystemCmd), (12 bytes).
    Removing stm32f10x_rcc.o(i.RCC_DeInit), (76 bytes).
    Removing stm32f10x_rcc.o(i.RCC_GetFlagStatus), (60 bytes).
    Removing stm32f10x_rcc.o(i.RCC_GetITStatus), (24 bytes).
    Removing stm32f10x_rcc.o(i.RCC_GetSYSCLKSource), (16 bytes).
    Removing stm32f10x_rcc.o(i.RCC_HCLKConfig), (24 bytes).
    Removing stm32f10x_rcc.o(i.RCC_HSEConfig), (76 bytes).
    Removing stm32f10x_rcc.o(i.RCC_HSICmd), (12 bytes).
    Removing stm32f10x_rcc.o(i.RCC_ITConfig), (32 bytes).
    Removing stm32f10x_rcc.o(i.RCC_LSEConfig), (52 bytes).
    Removing stm32f10x_rcc.o(i.RCC_LSICmd), (12 bytes).
    Removing stm32f10x_rcc.o(i.RCC_MCOConfig), (12 bytes).
    Removing stm32f10x_rcc.o(i.RCC_PCLK1Config), (24 bytes).
    Removing stm32f10x_rcc.o(i.RCC_PCLK2Config), (24 bytes).
    Removing stm32f10x_rcc.o(i.RCC_PLLCmd), (12 bytes).
    Removing stm32f10x_rcc.o(i.RCC_PLLConfig), (28 bytes).
    Removing stm32f10x_rcc.o(i.RCC_RTCCLKCmd), (12 bytes).
    Removing stm32f10x_rcc.o(i.RCC_RTCCLKConfig), (16 bytes).
    Removing stm32f10x_rcc.o(i.RCC_SYSCLKConfig), (24 bytes).
    Removing stm32f10x_rcc.o(i.RCC_USBCLKConfig), (12 bytes).
    Removing stm32f10x_rcc.o(i.RCC_WaitForHSEStartUp), (56 bytes).
    Removing stm32f10x_usart.o(i.USART_ClearFlag), (18 bytes).
    Removing stm32f10x_usart.o(i.USART_ClearITPendingBit), (30 bytes).
    Removing stm32f10x_usart.o(i.USART_ClockInit), (34 bytes).
    Removing stm32f10x_usart.o(i.USART_ClockStructInit), (12 bytes).
    Removing stm32f10x_usart.o(i.USART_DMACmd), (18 bytes).
    Removing stm32f10x_usart.o(i.USART_DeInit), (156 bytes).
    Removing stm32f10x_usart.o(i.USART_GetFlagStatus), (26 bytes).
    Removing stm32f10x_usart.o(i.USART_HalfDuplexCmd), (24 bytes).
    Removing stm32f10x_usart.o(i.USART_IrDACmd), (24 bytes).
    Removing stm32f10x_usart.o(i.USART_IrDAConfig), (18 bytes).
    Removing stm32f10x_usart.o(i.USART_LINBreakDetectLengthConfig), (18 bytes).
    Removing stm32f10x_usart.o(i.USART_LINCmd), (24 bytes).
    Removing stm32f10x_usart.o(i.USART_OneBitMethodCmd), (24 bytes).
    Removing stm32f10x_usart.o(i.USART_OverSampling8Cmd), (22 bytes).
    Removing stm32f10x_usart.o(i.USART_ReceiverWakeUpCmd), (24 bytes).
    Removing stm32f10x_usart.o(i.USART_SendBreak), (10 bytes).
    Removing stm32f10x_usart.o(i.USART_SendData), (8 bytes).
    Removing stm32f10x_usart.o(i.USART_SetAddress), (18 bytes).
    Removing stm32f10x_usart.o(i.USART_SetGuardTime), (16 bytes).
    Removing stm32f10x_usart.o(i.USART_SetPrescaler), (16 bytes).
    Removing stm32f10x_usart.o(i.USART_SmartCardCmd), (24 bytes).
    Removing stm32f10x_usart.o(i.USART_SmartCardNACKCmd), (24 bytes).
    Removing stm32f10x_usart.o(i.USART_StructInit), (24 bytes).
    Removing stm32f10x_usart.o(i.USART_WakeUpConfig), (18 bytes).
    Removing stm32f10x_cec.o(i.CEC_ClearFlag), (36 bytes).
    Removing stm32f10x_cec.o(i.CEC_ClearITPendingBit), (36 bytes).
    Removing stm32f10x_cec.o(i.CEC_Cmd), (32 bytes).
    Removing stm32f10x_cec.o(i.CEC_DeInit), (22 bytes).
    Removing stm32f10x_cec.o(i.CEC_EndOfMessageCmd), (12 bytes).
    Removing stm32f10x_cec.o(i.CEC_GetFlagStatus), (48 bytes).
    Removing stm32f10x_cec.o(i.CEC_GetITStatus), (40 bytes).
    Removing stm32f10x_cec.o(i.CEC_ITConfig), (12 bytes).
    Removing stm32f10x_cec.o(i.CEC_Init), (32 bytes).
    Removing stm32f10x_cec.o(i.CEC_OwnAddressConfig), (12 bytes).
    Removing stm32f10x_cec.o(i.CEC_ReceiveDataByte), (12 bytes).
    Removing stm32f10x_cec.o(i.CEC_SendDataByte), (12 bytes).
    Removing stm32f10x_cec.o(i.CEC_SetPrescaler), (12 bytes).
    Removing stm32f10x_cec.o(i.CEC_StartOfMessage), (12 bytes).
    Removing stm32f10x_crc.o(i.CRC_CalcBlockCRC), (36 bytes).
    Removing stm32f10x_crc.o(i.CRC_CalcCRC), (16 bytes).
    Removing stm32f10x_crc.o(i.CRC_GetCRC), (12 bytes).
    Removing stm32f10x_crc.o(i.CRC_GetIDRegister), (12 bytes).
    Removing stm32f10x_crc.o(i.CRC_ResetDR), (12 bytes).
    Removing stm32f10x_crc.o(i.CRC_SetIDRegister), (12 bytes).
    Removing stm32f10x_dac.o(i.DAC_Cmd), (40 bytes).
    Removing stm32f10x_dac.o(i.DAC_DMACmd), (44 bytes).
    Removing stm32f10x_dac.o(i.DAC_DeInit), (22 bytes).
    Removing stm32f10x_dac.o(i.DAC_DualSoftwareTriggerCmd), (36 bytes).
    Removing stm32f10x_dac.o(i.DAC_GetDataOutputValue), (36 bytes).
    Removing stm32f10x_dac.o(i.DAC_Init), (52 bytes).
    Removing stm32f10x_dac.o(i.DAC_SetChannel1Data), (32 bytes).
    Removing stm32f10x_dac.o(i.DAC_SetChannel2Data), (32 bytes).
    Removing stm32f10x_dac.o(i.DAC_SetDualChannelData), (36 bytes).
    Removing stm32f10x_dac.o(i.DAC_SoftwareTriggerCmd), (44 bytes).
    Removing stm32f10x_dac.o(i.DAC_StructInit), (12 bytes).
    Removing stm32f10x_dac.o(i.DAC_WaveGenerationCmd), (40 bytes).
    Removing stm32f10x_dbgmcu.o(i.DBGMCU_Config), (32 bytes).
    Removing stm32f10x_dbgmcu.o(i.DBGMCU_GetDEVID), (16 bytes).
    Removing stm32f10x_dbgmcu.o(i.DBGMCU_GetREVID), (12 bytes).
    Removing stm32f10x_dma.o(i.DMA_ClearITPendingBit), (28 bytes).
    Removing stm32f10x_dma.o(i.DMA_GetCurrDataCounter), (8 bytes).
    Removing stm32f10x_dma.o(i.DMA_GetITStatus), (44 bytes).
    Removing stm32f10x_dma.o(i.DMA_ITConfig), (18 bytes).
    Removing stm32f10x_dma.o(i.DMA_StructInit), (26 bytes).
    Removing stm32f10x_exti.o(i.EXTI_ClearFlag), (12 bytes).
    Removing stm32f10x_exti.o(i.EXTI_DeInit), (36 bytes).
    Removing stm32f10x_exti.o(i.EXTI_GenerateSWInterrupt), (16 bytes).
    Removing stm32f10x_exti.o(i.EXTI_GetFlagStatus), (24 bytes).
    Removing stm32f10x_exti.o(i.EXTI_StructInit), (16 bytes).
    Removing stm32f10x_flash.o(i.FLASH_ClearFlag), (12 bytes).
    Removing stm32f10x_flash.o(i.FLASH_EnableWriteProtection), (196 bytes).
    Removing stm32f10x_flash.o(i.FLASH_EraseAllBank1Pages), (72 bytes).
    Removing stm32f10x_flash.o(i.FLASH_EraseAllPages), (72 bytes).
    Removing stm32f10x_flash.o(i.FLASH_EraseOptionBytes), (168 bytes).
    Removing stm32f10x_flash.o(i.FLASH_ErasePage), (76 bytes).
    Removing stm32f10x_flash.o(i.FLASH_GetBank1Status), (52 bytes).
    Removing stm32f10x_flash.o(i.FLASH_GetFlagStatus), (48 bytes).
    Removing stm32f10x_flash.o(i.FLASH_GetPrefetchBufferStatus), (24 bytes).
    Removing stm32f10x_flash.o(i.FLASH_GetReadOutProtectionStatus), (24 bytes).
    Removing stm32f10x_flash.o(i.FLASH_GetStatus), (52 bytes).
    Removing stm32f10x_flash.o(i.FLASH_GetUserOptionByte), (12 bytes).
    Removing stm32f10x_flash.o(i.FLASH_GetWriteProtectionOptionByte), (12 bytes).
    Removing stm32f10x_flash.o(i.FLASH_HalfCycleAccessCmd), (28 bytes).
    Removing stm32f10x_flash.o(i.FLASH_ITConfig), (32 bytes).
    Removing stm32f10x_flash.o(i.FLASH_Lock), (20 bytes).
    Removing stm32f10x_flash.o(i.FLASH_LockBank1), (20 bytes).
    Removing stm32f10x_flash.o(i.FLASH_PrefetchBufferCmd), (28 bytes).
    Removing stm32f10x_flash.o(i.FLASH_ProgramHalfWord), (64 bytes).
    Removing stm32f10x_flash.o(i.FLASH_ProgramOptionByteData), (84 bytes).
    Removing stm32f10x_flash.o(i.FLASH_ProgramWord), (108 bytes).
    Removing stm32f10x_flash.o(i.FLASH_ReadOutProtection), (172 bytes).
    Removing stm32f10x_flash.o(i.FLASH_SetLatency), (24 bytes).
    Removing stm32f10x_flash.o(i.FLASH_Unlock), (24 bytes).
    Removing stm32f10x_flash.o(i.FLASH_UnlockBank1), (24 bytes).
    Removing stm32f10x_flash.o(i.FLASH_UserOptionByteConfig), (104 bytes).
    Removing stm32f10x_flash.o(i.FLASH_WaitForLastBank1Operation), (38 bytes).
    Removing stm32f10x_flash.o(i.FLASH_WaitForLastOperation), (38 bytes).
    Removing stm32f10x_fsmc.o(i.FSMC_ClearFlag), (64 bytes).
    Removing stm32f10x_fsmc.o(i.FSMC_ClearITPendingBit), (72 bytes).
    Removing stm32f10x_fsmc.o(i.FSMC_GetECC), (28 bytes).
    Removing stm32f10x_fsmc.o(i.FSMC_GetFlagStatus), (56 bytes).
    Removing stm32f10x_fsmc.o(i.FSMC_GetITStatus), (68 bytes).
    Removing stm32f10x_fsmc.o(i.FSMC_ITConfig), (128 bytes).
    Removing stm32f10x_fsmc.o(i.FSMC_NANDCmd), (92 bytes).
    Removing stm32f10x_fsmc.o(i.FSMC_NANDDeInit), (68 bytes).
    Removing stm32f10x_fsmc.o(i.FSMC_NANDECCCmd), (92 bytes).
    Removing stm32f10x_fsmc.o(i.FSMC_NANDInit), (136 bytes).
    Removing stm32f10x_fsmc.o(i.FSMC_NANDStructInit), (54 bytes).
    Removing stm32f10x_fsmc.o(i.FSMC_NORSRAMCmd), (52 bytes).
    Removing stm32f10x_fsmc.o(i.FSMC_NORSRAMDeInit), (54 bytes).
    Removing stm32f10x_fsmc.o(i.FSMC_NORSRAMInit), (230 bytes).
    Removing stm32f10x_fsmc.o(i.FSMC_NORSRAMStructInit), (114 bytes).
    Removing stm32f10x_fsmc.o(i.FSMC_PCCARDCmd), (48 bytes).
    Removing stm32f10x_fsmc.o(i.FSMC_PCCARDDeInit), (40 bytes).
    Removing stm32f10x_fsmc.o(i.FSMC_PCCARDInit), (132 bytes).
    Removing stm32f10x_fsmc.o(i.FSMC_PCCARDStructInit), (60 bytes).
    Removing stm32f10x_i2c.o(i.I2C_ARPCmd), (24 bytes).
    Removing stm32f10x_i2c.o(i.I2C_AcknowledgeConfig), (24 bytes).
    Removing stm32f10x_i2c.o(i.I2C_CalculatePEC), (24 bytes).
    Removing stm32f10x_i2c.o(i.I2C_CheckEvent), (42 bytes).
    Removing stm32f10x_i2c.o(i.I2C_ClearFlag), (12 bytes).
    Removing stm32f10x_i2c.o(i.I2C_ClearITPendingBit), (12 bytes).
    Removing stm32f10x_i2c.o(i.I2C_Cmd), (24 bytes).
    Removing stm32f10x_i2c.o(i.I2C_DMACmd), (24 bytes).
    Removing stm32f10x_i2c.o(i.I2C_DMALastTransferCmd), (24 bytes).
    Removing stm32f10x_i2c.o(i.I2C_DeInit), (56 bytes).
    Removing stm32f10x_i2c.o(i.I2C_DualAddressCmd), (24 bytes).
    Removing stm32f10x_i2c.o(i.I2C_FastModeDutyCycleConfig), (28 bytes).
    Removing stm32f10x_i2c.o(i.I2C_GeneralCallCmd), (24 bytes).
    Removing stm32f10x_i2c.o(i.I2C_GenerateSTART), (24 bytes).
    Removing stm32f10x_i2c.o(i.I2C_GenerateSTOP), (24 bytes).
    Removing stm32f10x_i2c.o(i.I2C_GetFlagStatus), (58 bytes).
    Removing stm32f10x_i2c.o(i.I2C_GetITStatus), (38 bytes).
    Removing stm32f10x_i2c.o(i.I2C_GetLastEvent), (26 bytes).
    Removing stm32f10x_i2c.o(i.I2C_GetPEC), (8 bytes).
    Removing stm32f10x_i2c.o(i.I2C_ITConfig), (18 bytes).
    Removing stm32f10x_i2c.o(i.I2C_Init), (236 bytes).
    Removing stm32f10x_i2c.o(i.I2C_NACKPositionConfig), (28 bytes).
    Removing stm32f10x_i2c.o(i.I2C_OwnAddress2Config), (22 bytes).
    Removing stm32f10x_i2c.o(i.I2C_PECPositionConfig), (28 bytes).
    Removing stm32f10x_i2c.o(i.I2C_ReadRegister), (22 bytes).
    Removing stm32f10x_i2c.o(i.I2C_ReceiveData), (8 bytes).
    Removing stm32f10x_i2c.o(i.I2C_SMBusAlertConfig), (28 bytes).
    Removing stm32f10x_i2c.o(i.I2C_Send7bitAddress), (18 bytes).
    Removing stm32f10x_i2c.o(i.I2C_SendData), (4 bytes).
    Removing stm32f10x_i2c.o(i.I2C_SoftwareResetCmd), (22 bytes).
    Removing stm32f10x_i2c.o(i.I2C_StretchClockCmd), (24 bytes).
    Removing stm32f10x_i2c.o(i.I2C_StructInit), (30 bytes).
    Removing stm32f10x_i2c.o(i.I2C_TransmitPEC), (24 bytes).
    Removing stm32f10x_iwdg.o(i.IWDG_Enable), (16 bytes).
    Removing stm32f10x_iwdg.o(i.IWDG_GetFlagStatus), (24 bytes).
    Removing stm32f10x_iwdg.o(i.IWDG_ReloadCounter), (16 bytes).
    Removing stm32f10x_iwdg.o(i.IWDG_SetPrescaler), (12 bytes).
    Removing stm32f10x_iwdg.o(i.IWDG_SetReload), (12 bytes).
    Removing stm32f10x_iwdg.o(i.IWDG_WriteAccessCmd), (12 bytes).
    Removing stm32f10x_pwr.o(i.PWR_BackupAccessCmd), (12 bytes).
    Removing stm32f10x_pwr.o(i.PWR_ClearFlag), (20 bytes).
    Removing stm32f10x_pwr.o(i.PWR_DeInit), (22 bytes).
    Removing stm32f10x_pwr.o(i.PWR_EnterSTANDBYMode), (52 bytes).
    Removing stm32f10x_pwr.o(i.PWR_EnterSTOPMode), (64 bytes).
    Removing stm32f10x_pwr.o(i.PWR_GetFlagStatus), (24 bytes).
    Removing stm32f10x_pwr.o(i.PWR_PVDCmd), (12 bytes).
    Removing stm32f10x_pwr.o(i.PWR_PVDLevelConfig), (24 bytes).
    Removing stm32f10x_pwr.o(i.PWR_WakeUpPinCmd), (12 bytes).
    Removing stm32f10x_rtc.o(i.RTC_ClearFlag), (16 bytes).
    Removing stm32f10x_rtc.o(i.RTC_ClearITPendingBit), (16 bytes).
    Removing stm32f10x_rtc.o(i.RTC_EnterConfigMode), (20 bytes).
    Removing stm32f10x_rtc.o(i.RTC_ExitConfigMode), (20 bytes).
    Removing stm32f10x_rtc.o(i.RTC_GetCounter), (20 bytes).
    Removing stm32f10x_rtc.o(i.RTC_GetDivider), (24 bytes).
    Removing stm32f10x_rtc.o(i.RTC_GetFlagStatus), (24 bytes).
    Removing stm32f10x_rtc.o(i.RTC_GetITStatus), (36 bytes).
    Removing stm32f10x_rtc.o(i.RTC_ITConfig), (32 bytes).
    Removing stm32f10x_rtc.o(i.RTC_SetAlarm), (28 bytes).
    Removing stm32f10x_rtc.o(i.RTC_SetCounter), (28 bytes).
    Removing stm32f10x_rtc.o(i.RTC_SetPrescaler), (32 bytes).
    Removing stm32f10x_rtc.o(i.RTC_WaitForLastTask), (20 bytes).
    Removing stm32f10x_rtc.o(i.RTC_WaitForSynchro), (36 bytes).
    Removing stm32f10x_sdio.o(i.SDIO_CEATAITCmd), (16 bytes).
    Removing stm32f10x_sdio.o(i.SDIO_ClearITPendingBit), (12 bytes).
    Removing stm32f10x_sdio.o(i.SDIO_CmdStructInit), (14 bytes).
    Removing stm32f10x_sdio.o(i.SDIO_CommandCompletionCmd), (12 bytes).
    Removing stm32f10x_sdio.o(i.SDIO_DataStructInit), (20 bytes).
    Removing stm32f10x_sdio.o(i.SDIO_GetCommandResponse), (12 bytes).
    Removing stm32f10x_sdio.o(i.SDIO_GetDataCounter), (12 bytes).
    Removing stm32f10x_sdio.o(i.SDIO_GetFIFOCount), (12 bytes).
    Removing stm32f10x_sdio.o(i.SDIO_GetITStatus), (24 bytes).
    Removing stm32f10x_sdio.o(i.SDIO_GetResponse), (24 bytes).
    Removing stm32f10x_sdio.o(i.SDIO_ITConfig), (32 bytes).
    Removing stm32f10x_sdio.o(i.SDIO_SendCEATACmd), (12 bytes).
    Removing stm32f10x_sdio.o(i.SDIO_SendSDIOSuspendCmd), (12 bytes).
    Removing stm32f10x_sdio.o(i.SDIO_SetSDIOOperation), (12 bytes).
    Removing stm32f10x_sdio.o(i.SDIO_SetSDIOReadWaitMode), (12 bytes).
    Removing stm32f10x_sdio.o(i.SDIO_StartSDIOReadWait), (12 bytes).
    Removing stm32f10x_sdio.o(i.SDIO_StopSDIOReadWait), (12 bytes).
    Removing stm32f10x_sdio.o(i.SDIO_StructInit), (16 bytes).
    Removing stm32f10x_spi.o(i.I2S_Cmd), (24 bytes).
    Removing stm32f10x_spi.o(i.I2S_Init), (232 bytes).
    Removing stm32f10x_spi.o(i.I2S_StructInit), (20 bytes).
    Removing stm32f10x_spi.o(i.SPI_BiDirectionalLineConfig), (28 bytes).
    Removing stm32f10x_spi.o(i.SPI_CalculateCRC), (24 bytes).
    Removing stm32f10x_spi.o(i.SPI_DataSizeConfig), (18 bytes).
    Removing stm32f10x_spi.o(i.SPI_GetCRC), (16 bytes).
    Removing stm32f10x_spi.o(i.SPI_GetCRCPolynomial), (6 bytes).
    Removing stm32f10x_spi.o(i.SPI_I2S_ClearFlag), (6 bytes).
    Removing stm32f10x_spi.o(i.SPI_I2S_ClearITPendingBit), (20 bytes).
    Removing stm32f10x_spi.o(i.SPI_I2S_DeInit), (88 bytes).
    Removing stm32f10x_spi.o(i.SPI_I2S_GetITStatus), (52 bytes).
    Removing stm32f10x_spi.o(i.SPI_I2S_ITConfig), (32 bytes).
    Removing stm32f10x_spi.o(i.SPI_NSSInternalSoftwareConfig), (30 bytes).
    Removing stm32f10x_spi.o(i.SPI_SSOutputCmd), (24 bytes).
    Removing stm32f10x_spi.o(i.SPI_StructInit), (24 bytes).
    Removing stm32f10x_spi.o(i.SPI_TransmitCRC), (10 bytes).
    Removing stm32f10x_tim.o(i.TI1_Config), (128 bytes).
    Removing stm32f10x_tim.o(i.TI2_Config), (152 bytes).
    Removing stm32f10x_tim.o(i.TI3_Config), (144 bytes).
    Removing stm32f10x_tim.o(i.TI4_Config), (152 bytes).
    Removing stm32f10x_tim.o(i.TIM_ARRPreloadConfig), (24 bytes).
    Removing stm32f10x_tim.o(i.TIM_BDTRConfig), (32 bytes).
    Removing stm32f10x_tim.o(i.TIM_BDTRStructInit), (18 bytes).
    Removing stm32f10x_tim.o(i.TIM_CCPreloadControl), (24 bytes).
    Removing stm32f10x_tim.o(i.TIM_CCxCmd), (30 bytes).
    Removing stm32f10x_tim.o(i.TIM_CCxNCmd), (30 bytes).
    Removing stm32f10x_tim.o(i.TIM_ClearFlag), (6 bytes).
    Removing stm32f10x_tim.o(i.TIM_ClearOC1Ref), (18 bytes).
    Removing stm32f10x_tim.o(i.TIM_ClearOC2Ref), (24 bytes).
    Removing stm32f10x_tim.o(i.TIM_ClearOC3Ref), (18 bytes).
    Removing stm32f10x_tim.o(i.TIM_ClearOC4Ref), (24 bytes).
    Removing stm32f10x_tim.o(i.TIM_CounterModeConfig), (18 bytes).
    Removing stm32f10x_tim.o(i.TIM_CtrlPWMOutputs), (30 bytes).
    Removing stm32f10x_tim.o(i.TIM_DMACmd), (18 bytes).
    Removing stm32f10x_tim.o(i.TIM_DMAConfig), (10 bytes).
    Removing stm32f10x_tim.o(i.TIM_DeInit), (488 bytes).
    Removing stm32f10x_tim.o(i.TIM_ETRClockMode1Config), (54 bytes).
    Removing stm32f10x_tim.o(i.TIM_ETRClockMode2Config), (32 bytes).
    Removing stm32f10x_tim.o(i.TIM_ETRConfig), (28 bytes).
    Removing stm32f10x_tim.o(i.TIM_EncoderInterfaceConfig), (66 bytes).
    Removing stm32f10x_tim.o(i.TIM_ForcedOC1Config), (18 bytes).
    Removing stm32f10x_tim.o(i.TIM_ForcedOC2Config), (26 bytes).
    Removing stm32f10x_tim.o(i.TIM_ForcedOC3Config), (18 bytes).
    Removing stm32f10x_tim.o(i.TIM_ForcedOC4Config), (26 bytes).
    Removing stm32f10x_tim.o(i.TIM_GenerateEvent), (4 bytes).
    Removing stm32f10x_tim.o(i.TIM_GetCapture1), (6 bytes).
    Removing stm32f10x_tim.o(i.TIM_GetCapture2), (6 bytes).
    Removing stm32f10x_tim.o(i.TIM_GetCapture3), (6 bytes).
    Removing stm32f10x_tim.o(i.TIM_GetCapture4), (8 bytes).
    Removing stm32f10x_tim.o(i.TIM_GetCounter), (6 bytes).
    Removing stm32f10x_tim.o(i.TIM_GetFlagStatus), (18 bytes).
    Removing stm32f10x_tim.o(i.TIM_GetPrescaler), (6 bytes).
    Removing stm32f10x_tim.o(i.TIM_ICInit), (172 bytes).
    Removing stm32f10x_tim.o(i.TIM_ICStructInit), (18 bytes).
    Removing stm32f10x_tim.o(i.TIM_ITConfig), (18 bytes).
    Removing stm32f10x_tim.o(i.TIM_ITRxExternalClockConfig), (24 bytes).
    Removing stm32f10x_tim.o(i.TIM_InternalClockConfig), (12 bytes).
    Removing stm32f10x_tim.o(i.TIM_OC1FastConfig), (18 bytes).
    Removing stm32f10x_tim.o(i.TIM_OC1Init), (152 bytes).
    Removing stm32f10x_tim.o(i.TIM_OC1NPolarityConfig), (18 bytes).
    Removing stm32f10x_tim.o(i.TIM_OC1PolarityConfig), (18 bytes).
    Removing stm32f10x_tim.o(i.TIM_OC1PreloadConfig), (18 bytes).
    Removing stm32f10x_tim.o(i.TIM_OC2FastConfig), (26 bytes).
    Removing stm32f10x_tim.o(i.TIM_OC2Init), (164 bytes).
    Removing stm32f10x_tim.o(i.TIM_OC2NPolarityConfig), (26 bytes).
    Removing stm32f10x_tim.o(i.TIM_OC2PolarityConfig), (26 bytes).
    Removing stm32f10x_tim.o(i.TIM_OC2PreloadConfig), (26 bytes).
    Removing stm32f10x_tim.o(i.TIM_OC3FastConfig), (18 bytes).
    Removing stm32f10x_tim.o(i.TIM_OC3Init), (160 bytes).
    Removing stm32f10x_tim.o(i.TIM_OC3NPolarityConfig), (26 bytes).
    Removing stm32f10x_tim.o(i.TIM_OC3PolarityConfig), (26 bytes).
    Removing stm32f10x_tim.o(i.TIM_OC3PreloadConfig), (18 bytes).
    Removing stm32f10x_tim.o(i.TIM_OC4FastConfig), (26 bytes).
    Removing stm32f10x_tim.o(i.TIM_OC4Init), (124 bytes).
    Removing stm32f10x_tim.o(i.TIM_OC4PolarityConfig), (26 bytes).
    Removing stm32f10x_tim.o(i.TIM_OC4PreloadConfig), (26 bytes).
    Removing stm32f10x_tim.o(i.TIM_OCStructInit), (20 bytes).
    Removing stm32f10x_tim.o(i.TIM_PWMIConfig), (124 bytes).
    Removing stm32f10x_tim.o(i.TIM_PrescalerConfig), (6 bytes).
    Removing stm32f10x_tim.o(i.TIM_SelectCCDMA), (24 bytes).
    Removing stm32f10x_tim.o(i.TIM_SelectCOM), (24 bytes).
    Removing stm32f10x_tim.o(i.TIM_SelectHallSensor), (24 bytes).
    Removing stm32f10x_tim.o(i.TIM_SelectInputTrigger), (18 bytes).
    Removing stm32f10x_tim.o(i.TIM_SelectMasterSlaveMode), (18 bytes).
    Removing stm32f10x_tim.o(i.TIM_SelectOCxM), (82 bytes).
    Removing stm32f10x_tim.o(i.TIM_SelectOnePulseMode), (18 bytes).
    Removing stm32f10x_tim.o(i.TIM_SelectOutputTrigger), (18 bytes).
    Removing stm32f10x_tim.o(i.TIM_SelectSlaveMode), (18 bytes).
    Removing stm32f10x_tim.o(i.TIM_SetAutoreload), (4 bytes).
    Removing stm32f10x_tim.o(i.TIM_SetClockDivision), (18 bytes).
    Removing stm32f10x_tim.o(i.TIM_SetCompare1), (4 bytes).
    Removing stm32f10x_tim.o(i.TIM_SetCompare2), (4 bytes).
    Removing stm32f10x_tim.o(i.TIM_SetCompare3), (4 bytes).
    Removing stm32f10x_tim.o(i.TIM_SetCompare4), (6 bytes).
    Removing stm32f10x_tim.o(i.TIM_SetIC1Prescaler), (18 bytes).
    Removing stm32f10x_tim.o(i.TIM_SetIC2Prescaler), (26 bytes).
    Removing stm32f10x_tim.o(i.TIM_SetIC3Prescaler), (18 bytes).
    Removing stm32f10x_tim.o(i.TIM_SetIC4Prescaler), (26 bytes).
    Removing stm32f10x_tim.o(i.TIM_TIxExternalClockConfig), (62 bytes).
    Removing stm32f10x_tim.o(i.TIM_TimeBaseInit), (164 bytes).
    Removing stm32f10x_tim.o(i.TIM_TimeBaseStructInit), (18 bytes).
    Removing stm32f10x_tim.o(i.TIM_UpdateDisableConfig), (24 bytes).
    Removing stm32f10x_tim.o(i.TIM_UpdateRequestConfig), (24 bytes).
    Removing stm32f10x_wwdg.o(i.WWDG_ClearFlag), (12 bytes).
    Removing stm32f10x_wwdg.o(i.WWDG_DeInit), (22 bytes).
    Removing stm32f10x_wwdg.o(i.WWDG_Enable), (16 bytes).
    Removing stm32f10x_wwdg.o(i.WWDG_EnableIT), (12 bytes).
    Removing stm32f10x_wwdg.o(i.WWDG_GetFlagStatus), (12 bytes).
    Removing stm32f10x_wwdg.o(i.WWDG_SetCounter), (16 bytes).
    Removing stm32f10x_wwdg.o(i.WWDG_SetPrescaler), (24 bytes).
    Removing stm32f10x_wwdg.o(i.WWDG_SetWindowValue), (40 bytes).
    Removing stm32f10x_adc.o(i.ADC_AnalogWatchdogCmd), (20 bytes).
    Removing stm32f10x_adc.o(i.ADC_AnalogWatchdogSingleChannelConfig), (16 bytes).
    Removing stm32f10x_adc.o(i.ADC_AnalogWatchdogThresholdsConfig), (6 bytes).
    Removing stm32f10x_adc.o(i.ADC_AutoInjectedConvCmd), (22 bytes).
    Removing stm32f10x_adc.o(i.ADC_ClearFlag), (6 bytes).
    Removing stm32f10x_adc.o(i.ADC_ClearITPendingBit), (10 bytes).
    Removing stm32f10x_adc.o(i.ADC_DMACmd), (22 bytes).
    Removing stm32f10x_adc.o(i.ADC_DiscModeChannelCountConfig), (24 bytes).
    Removing stm32f10x_adc.o(i.ADC_DiscModeCmd), (22 bytes).
    Removing stm32f10x_adc.o(i.ADC_ExternalTrigConvCmd), (22 bytes).
    Removing stm32f10x_adc.o(i.ADC_ExternalTrigInjectedConvCmd), (22 bytes).
    Removing stm32f10x_adc.o(i.ADC_ExternalTrigInjectedConvConfig), (16 bytes).
    Removing stm32f10x_adc.o(i.ADC_GetDualModeConversionValue), (12 bytes).
    Removing stm32f10x_adc.o(i.ADC_GetITStatus), (36 bytes).
    Removing stm32f10x_adc.o(i.ADC_GetInjectedConversionValue), (28 bytes).
    Removing stm32f10x_adc.o(i.ADC_GetSoftwareStartConvStatus), (20 bytes).
    Removing stm32f10x_adc.o(i.ADC_GetSoftwareStartInjectedConvCmdStatus), (20 bytes).
    Removing stm32f10x_adc.o(i.ADC_ITConfig), (24 bytes).
    Removing stm32f10x_adc.o(i.ADC_InjectedChannelConfig), (130 bytes).
    Removing stm32f10x_adc.o(i.ADC_InjectedDiscModeCmd), (22 bytes).
    Removing stm32f10x_adc.o(i.ADC_InjectedSequencerLengthConfig), (24 bytes).
    Removing stm32f10x_adc.o(i.ADC_SetInjectedOffset), (20 bytes).
    Removing stm32f10x_adc.o(i.ADC_SoftwareStartInjectedConvCmd), (22 bytes).
    Removing stm32f10x_adc.o(i.ADC_StructInit), (18 bytes).

508 unused section(s) (total 28380 bytes) removed from the image.

==============================================================================

Image Symbol Table

    Local Symbols

    Symbol Name                              Value     Ov Type        Size  Object(Section)

    ../clib/../cmprslib/zerorunl2.c          0x00000000   Number         0  __dczerorl2.o ABSOLUTE
    ../clib/microlib/division.c              0x00000000   Number         0  uldiv.o ABSOLUTE
    ../clib/microlib/division.c              0x00000000   Number         0  uidiv.o ABSOLUTE
    ../clib/microlib/division.c              0x00000000   Number         0  ldiv.o ABSOLUTE
    ../clib/microlib/init/entry.s            0x00000000   Number         0  entry12a.o ABSOLUTE
    ../clib/microlib/init/entry.s            0x00000000   Number         0  entry12b.o ABSOLUTE
    ../clib/microlib/init/entry.s            0x00000000   Number         0  entry.o ABSOLUTE
    ../clib/microlib/init/entry.s            0x00000000   Number         0  entry7a.o ABSOLUTE
    ../clib/microlib/init/entry.s            0x00000000   Number         0  entry11b.o ABSOLUTE
    ../clib/microlib/init/entry.s            0x00000000   Number         0  entry9a.o ABSOLUTE
    ../clib/microlib/init/entry.s            0x00000000   Number         0  entry11a.o ABSOLUTE
    ../clib/microlib/init/entry.s            0x00000000   Number         0  entry10b.o ABSOLUTE
    ../clib/microlib/init/entry.s            0x00000000   Number         0  entry7b.o ABSOLUTE
    ../clib/microlib/init/entry.s            0x00000000   Number         0  entry8b.o ABSOLUTE
    ../clib/microlib/init/entry.s            0x00000000   Number         0  entry10a.o ABSOLUTE
    ../clib/microlib/init/entry.s            0x00000000   Number         0  entry9b.o ABSOLUTE
    ../clib/microlib/init/entry.s            0x00000000   Number         0  entry5.o ABSOLUTE
    ../clib/microlib/init/entry.s            0x00000000   Number         0  entry2.o ABSOLUTE
    ../clib/microlib/init/entry.s            0x00000000   Number         0  entry8a.o ABSOLUTE
    ../clib/microlib/longlong.c              0x00000000   Number         0  llshl.o ABSOLUTE
    ../clib/microlib/longlong.c              0x00000000   Number         0  llushr.o ABSOLUTE
    ../clib/microlib/longlong.c              0x00000000   Number         0  llsshr.o ABSOLUTE
    ../clib/microlib/printf/printf.c         0x00000000   Number         0  printf4.o ABSOLUTE
    ../clib/microlib/printf/printf.c         0x00000000   Number         0  printf8.o ABSOLUTE
    ../clib/microlib/printf/printf.c         0x00000000   Number         0  printf2.o ABSOLUTE
    ../clib/microlib/printf/printf.c         0x00000000   Number         0  printf3.o ABSOLUTE
    ../clib/microlib/printf/printf.c         0x00000000   Number         0  printf0.o ABSOLUTE
    ../clib/microlib/printf/printf.c         0x00000000   Number         0  printfb.o ABSOLUTE
    ../clib/microlib/printf/printf.c         0x00000000   Number         0  printf1.o ABSOLUTE
    ../clib/microlib/printf/printf.c         0x00000000   Number         0  printfa.o ABSOLUTE
    ../clib/microlib/printf/printf.c         0x00000000   Number         0  printf7.o ABSOLUTE
    ../clib/microlib/printf/printf.c         0x00000000   Number         0  printf6.o ABSOLUTE
    ../clib/microlib/printf/printf.c         0x00000000   Number         0  printf5.o ABSOLUTE
    ../clib/microlib/printf/stubs.s          0x00000000   Number         0  stubs.o ABSOLUTE
    ../clib/microlib/string/memcpy.c         0x00000000   Number         0  memcpya.o ABSOLUTE
    ../clib/microlib/string/memcpy.c         0x00000000   Number         0  memcpyb.o ABSOLUTE
    ../clib/microlib/string/strcat.c         0x00000000   Number         0  strcat.o ABSOLUTE
    ../clib/microlib/string/strcmp.c         0x00000000   Number         0  strcmp.o ABSOLUTE
    ../clib/microlib/string/strcpy.c         0x00000000   Number         0  strcpy.o ABSOLUTE
    ../clib/microlib/string/strlen.c         0x00000000   Number         0  strlen.o ABSOLUTE
    ../clib/microlib/stubs.s                 0x00000000   Number         0  useno.o ABSOLUTE
    ../clib/microlib/stubs.s                 0x00000000   Number         0  iusefp.o ABSOLUTE
    ../fplib/microlib/d2f.c                  0x00000000   Number         0  d2f.o ABSOLUTE
    ../fplib/microlib/f2d.c                  0x00000000   Number         0  f2d.o ABSOLUTE
    ../fplib/microlib/fpadd.c                0x00000000   Number         0  fadd.o ABSOLUTE
    ../fplib/microlib/fpadd.c                0x00000000   Number         0  dadd.o ABSOLUTE
    ../fplib/microlib/fpdiv.c                0x00000000   Number         0  ddiv.o ABSOLUTE
    ../fplib/microlib/fpdiv.c                0x00000000   Number         0  fdiv.o ABSOLUTE
    ../fplib/microlib/fpepilogue.c           0x00000000   Number         0  fepilogue.o ABSOLUTE
    ../fplib/microlib/fpepilogue.c           0x00000000   Number         0  depilogue.o ABSOLUTE
    ../fplib/microlib/fpfix.c                0x00000000   Number         0  dfixi.o ABSOLUTE
    ../fplib/microlib/fpfix.c                0x00000000   Number         0  ffixui.o ABSOLUTE
    ../fplib/microlib/fpfix.c                0x00000000   Number         0  dfixul.o ABSOLUTE
    ../fplib/microlib/fpflt.c                0x00000000   Number         0  ffltui.o ABSOLUTE
    ../fplib/microlib/fpflt.c                0x00000000   Number         0  fflti.o ABSOLUTE
    ../fplib/microlib/fpmul.c                0x00000000   Number         0  dmul.o ABSOLUTE
    ../fplib/microlib/fpmul.c                0x00000000   Number         0  fmul.o ABSOLUTE
    ..\CORE\core_cm3.c                       0x00000000   Number         0  core_cm3.o ABSOLUTE
    ..\CORE\startup_stm32f10x_hd.s           0x00000000   Number         0  startup_stm32f10x_hd.o ABSOLUTE
    ..\HARDWARE\ADC\ADC.c                    0x00000000   Number         0  adc.o ABSOLUTE
    ..\HARDWARE\BH1750\BH1750.c              0x00000000   Number         0  bh1750.o ABSOLUTE
    ..\HARDWARE\FATFS\exfuns\exfuns.c        0x00000000   Number         0  exfuns.o ABSOLUTE
    ..\HARDWARE\FATFS\exfuns\fattester.c     0x00000000   Number         0  fattester.o ABSOLUTE
    ..\HARDWARE\FATFS\src\User_FAT.c         0x00000000   Number         0  user_fat.o ABSOLUTE
    ..\HARDWARE\FATFS\src\diskio.c           0x00000000   Number         0  diskio.o ABSOLUTE
    ..\HARDWARE\FATFS\src\ff.c               0x00000000   Number         0  ff.o ABSOLUTE
    ..\HARDWARE\FATFS\src\option\cc936.c     0x00000000   Number         0  cc936.o ABSOLUTE
    ..\HARDWARE\HC_SR04.c                    0x00000000   Number         0  hc_sr04.o ABSOLUTE
    ..\HARDWARE\MPU6050\mpu6050.c            0x00000000   Number         0  mpu6050.o ABSOLUTE
    ..\HARDWARE\PICTURE\bmp.c                0x00000000   Number         0  bmp.o ABSOLUTE
    ..\HARDWARE\PICTURE\gif.c                0x00000000   Number         0  gif.o ABSOLUTE
    ..\HARDWARE\PICTURE\piclib.c             0x00000000   Number         0  piclib.o ABSOLUTE
    ..\HARDWARE\PICTURE\tjpgd.c              0x00000000   Number         0  tjpgd.o ABSOLUTE
    ..\HARDWARE\POWER\POWER.C                0x00000000   Number         0  power.o ABSOLUTE
    ..\HARDWARE\SD.c                         0x00000000   Number         0  sd.o ABSOLUTE
    ..\HARDWARE\TEXT\fontupd.c               0x00000000   Number         0  fontupd.o ABSOLUTE
    ..\HARDWARE\TEXT\text.c                  0x00000000   Number         0  text.o ABSOLUTE
    ..\HARDWARE\TFT.c                        0x00000000   Number         0  tft.o ABSOLUTE
    ..\HARDWARE\User_Interface\InterFace.c   0x00000000   Number         0  interface.o ABSOLUTE
    ..\HARDWARE\User_Interface\Modules_IFace.c 0x00000000   Number         0  modules_iface.o ABSOLUTE
    ..\HARDWARE\User_Interface\SD_IFace.c    0x00000000   Number         0  sd_iface.o ABSOLUTE
    ..\HARDWARE\VI5310X\vl53l0x.c            0x00000000   Number         0  vl53l0x.o ABSOLUTE
    ..\HARDWARE\VI5310X\vl53l0x_api.c        0x00000000   Number         0  vl53l0x_api.o ABSOLUTE
    ..\HARDWARE\VI5310X\vl53l0x_api_calibration.c 0x00000000   Number         0  vl53l0x_api_calibration.o ABSOLUTE
    ..\HARDWARE\VI5310X\vl53l0x_api_core.c   0x00000000   Number         0  vl53l0x_api_core.o ABSOLUTE
    ..\HARDWARE\VI5310X\vl53l0x_api_ranging.c 0x00000000   Number         0  vl53l0x_api_ranging.o ABSOLUTE
    ..\HARDWARE\VI5310X\vl53l0x_api_strings.c 0x00000000   Number         0  vl53l0x_api_strings.o ABSOLUTE
    ..\HARDWARE\VI5310X\vl53l0x_cali.c       0x00000000   Number         0  vl53l0x_cali.o ABSOLUTE
    ..\HARDWARE\VI5310X\vl53l0x_gen.c        0x00000000   Number         0  vl53l0x_gen.o ABSOLUTE
    ..\HARDWARE\VI5310X\vl53l0x_i2c.c        0x00000000   Number         0  vl53l0x_i2c.o ABSOLUTE
    ..\HARDWARE\VI5310X\vl53l0x_it.c         0x00000000   Number         0  vl53l0x_it.o ABSOLUTE
    ..\HARDWARE\VI5310X\vl53l0x_platform.c   0x00000000   Number         0  vl53l0x_platform.o ABSOLUTE
    ..\HARDWARE\arithmetic\Arithmetic.c      0x00000000   Number         0  arithmetic.o ABSOLUTE
    ..\HARDWARE\key.c                        0x00000000   Number         0  key.o ABSOLUTE
    ..\HARDWARE\led.c                        0x00000000   Number         0  led.o ABSOLUTE
    ..\HARDWARE\malloc.c                     0x00000000   Number         0  malloc.o ABSOLUTE
    ..\HARDWARE\timer\PWMOUT.c               0x00000000   Number         0  pwmout.o ABSOLUTE
    ..\HARDWARE\w25q64.c                     0x00000000   Number         0  w25q64.o ABSOLUTE
    ..\STM32F10x_FWLib\src\misc.c            0x00000000   Number         0  misc.o ABSOLUTE
    ..\STM32F10x_FWLib\src\stm32f10x_adc.c   0x00000000   Number         0  stm32f10x_adc.o ABSOLUTE
    ..\STM32F10x_FWLib\src\stm32f10x_cec.c   0x00000000   Number         0  stm32f10x_cec.o ABSOLUTE
    ..\STM32F10x_FWLib\src\stm32f10x_crc.c   0x00000000   Number         0  stm32f10x_crc.o ABSOLUTE
    ..\STM32F10x_FWLib\src\stm32f10x_dac.c   0x00000000   Number         0  stm32f10x_dac.o ABSOLUTE
    ..\STM32F10x_FWLib\src\stm32f10x_dbgmcu.c 0x00000000   Number         0  stm32f10x_dbgmcu.o ABSOLUTE
    ..\STM32F10x_FWLib\src\stm32f10x_dma.c   0x00000000   Number         0  stm32f10x_dma.o ABSOLUTE
    ..\STM32F10x_FWLib\src\stm32f10x_exti.c  0x00000000   Number         0  stm32f10x_exti.o ABSOLUTE
    ..\STM32F10x_FWLib\src\stm32f10x_flash.c 0x00000000   Number         0  stm32f10x_flash.o ABSOLUTE
    ..\STM32F10x_FWLib\src\stm32f10x_fsmc.c  0x00000000   Number         0  stm32f10x_fsmc.o ABSOLUTE
    ..\STM32F10x_FWLib\src\stm32f10x_gpio.c  0x00000000   Number         0  stm32f10x_gpio.o ABSOLUTE
    ..\STM32F10x_FWLib\src\stm32f10x_i2c.c   0x00000000   Number         0  stm32f10x_i2c.o ABSOLUTE
    ..\STM32F10x_FWLib\src\stm32f10x_iwdg.c  0x00000000   Number         0  stm32f10x_iwdg.o ABSOLUTE
    ..\STM32F10x_FWLib\src\stm32f10x_pwr.c   0x00000000   Number         0  stm32f10x_pwr.o ABSOLUTE
    ..\STM32F10x_FWLib\src\stm32f10x_rcc.c   0x00000000   Number         0  stm32f10x_rcc.o ABSOLUTE
    ..\STM32F10x_FWLib\src\stm32f10x_rtc.c   0x00000000   Number         0  stm32f10x_rtc.o ABSOLUTE
    ..\STM32F10x_FWLib\src\stm32f10x_sdio.c  0x00000000   Number         0  stm32f10x_sdio.o ABSOLUTE
    ..\STM32F10x_FWLib\src\stm32f10x_spi.c   0x00000000   Number         0  stm32f10x_spi.o ABSOLUTE
    ..\STM32F10x_FWLib\src\stm32f10x_tim.c   0x00000000   Number         0  stm32f10x_tim.o ABSOLUTE
    ..\STM32F10x_FWLib\src\stm32f10x_usart.c 0x00000000   Number         0  stm32f10x_usart.o ABSOLUTE
    ..\STM32F10x_FWLib\src\stm32f10x_wwdg.c  0x00000000   Number         0  stm32f10x_wwdg.o ABSOLUTE
    ..\SYSTEM\delay.c                        0x00000000   Number         0  delay.o ABSOLUTE
    ..\SYSTEM\sys.c                          0x00000000   Number         0  sys.o ABSOLUTE
    ..\SYSTEM\usart.c                        0x00000000   Number         0  usart.o ABSOLUTE
    ..\\CORE\\core_cm3.c                     0x00000000   Number         0  core_cm3.o ABSOLUTE
    ..\\SYSTEM\\sys.c                        0x00000000   Number         0  sys.o ABSOLUTE
    cdrcmple.s                               0x00000000   Number         0  cdrcmple.o ABSOLUTE
    cfcmple.s                                0x00000000   Number         0  cfcmple.o ABSOLUTE
    cfrcmple.s                               0x00000000   Number         0  cfrcmple.o ABSOLUTE
    dc.s                                     0x00000000   Number         0  dc.o ABSOLUTE
    handlers.s                               0x00000000   Number         0  handlers.o ABSOLUTE
    init.s                                   0x00000000   Number         0  init.o ABSOLUTE
    main.c                                   0x00000000   Number         0  main.o ABSOLUTE
    stm32f10x_it.c                           0x00000000   Number         0  stm32f10x_it.o ABSOLUTE
    system_stm32f10x.c                       0x00000000   Number         0  system_stm32f10x.o ABSOLUTE
    RESET                                    0x08000000   Section      304  startup_stm32f10x_hd.o(RESET)
    .ARM.Collect$$$$00000000                 0x08000130   Section        0  entry.o(.ARM.Collect$$$$00000000)
    .ARM.Collect$$$$00000001                 0x08000130   Section        4  entry2.o(.ARM.Collect$$$$00000001)
    .ARM.Collect$$$$00000004                 0x08000134   Section        4  entry5.o(.ARM.Collect$$$$00000004)
    .ARM.Collect$$$$00000008                 0x08000138   Section        0  entry7b.o(.ARM.Collect$$$$00000008)
    .ARM.Collect$$$$0000000A                 0x08000138   Section        0  entry8b.o(.ARM.Collect$$$$0000000A)
    .ARM.Collect$$$$0000000B                 0x08000138   Section        8  entry9a.o(.ARM.Collect$$$$0000000B)
    .ARM.Collect$$$$0000000E                 0x08000140   Section        4  entry12b.o(.ARM.Collect$$$$0000000E)
    .ARM.Collect$$$$0000000F                 0x08000144   Section        0  entry10a.o(.ARM.Collect$$$$0000000F)
    .ARM.Collect$$$$00000011                 0x08000144   Section        0  entry11a.o(.ARM.Collect$$$$00000011)
    .ARM.Collect$$$$00002712                 0x08000144   Section        4  entry2.o(.ARM.Collect$$$$00002712)
    __lit__00000000                          0x08000144   Data           4  entry2.o(.ARM.Collect$$$$00002712)
    .text                                    0x08000148   Section       36  startup_stm32f10x_hd.o(.text)
    .text                                    0x0800016c   Section        0  ldiv.o(.text)
    .text                                    0x080001ce   Section        0  memcpya.o(.text)
    .text                                    0x080001f2   Section        0  strcat.o(.text)
    .text                                    0x0800020a   Section        0  strcmp.o(.text)
    .text                                    0x08000226   Section        0  strcpy.o(.text)
    .text                                    0x08000238   Section        0  fadd.o(.text)
    .text                                    0x080002e8   Section        0  fmul.o(.text)
    .text                                    0x0800034c   Section        0  fdiv.o(.text)
    .text                                    0x080003c8   Section        0  dadd.o(.text)
    .text                                    0x08000516   Section        0  dmul.o(.text)
    .text                                    0x080005fa   Section        0  ddiv.o(.text)
    .text                                    0x080006d8   Section        0  fflti.o(.text)
    .text                                    0x080006ea   Section        0  ffltui.o(.text)
    .text                                    0x080006f4   Section        0  ffixui.o(.text)
    .text                                    0x0800071c   Section        0  dfixi.o(.text)
    .text                                    0x0800075a   Section        0  f2d.o(.text)
    .text                                    0x08000780   Section        0  d2f.o(.text)
    .text                                    0x080007b8   Section       20  cfcmple.o(.text)
    .text                                    0x080007cc   Section       20  cfrcmple.o(.text)
    .text                                    0x080007e0   Section        0  uidiv.o(.text)
    .text                                    0x0800080c   Section        0  uldiv.o(.text)
    .text                                    0x0800086e   Section        0  llshl.o(.text)
    .text                                    0x0800088c   Section        0  llushr.o(.text)
    .text                                    0x080008ac   Section        0  llsshr.o(.text)
    .text                                    0x080008d0   Section        0  fepilogue.o(.text)
    .text                                    0x080008d0   Section        0  iusefp.o(.text)
    .text                                    0x0800093e   Section        0  depilogue.o(.text)
    .text                                    0x080009f8   Section        0  dfixul.o(.text)
    .text                                    0x08000a28   Section       48  cdrcmple.o(.text)
    .text                                    0x08000a58   Section       36  init.o(.text)
    .text                                    0x08000a7c   Section        0  __dczerorl2.o(.text)
    i.ADC_Cmd                                0x08000ad2   Section        0  stm32f10x_adc.o(i.ADC_Cmd)
    i.ADC_DeInit                             0x08000ae8   Section        0  stm32f10x_adc.o(i.ADC_DeInit)
    i.ADC_GetCalibrationStatus               0x08000b44   Section        0  stm32f10x_adc.o(i.ADC_GetCalibrationStatus)
    i.ADC_GetConversionValue                 0x08000b58   Section        0  stm32f10x_adc.o(i.ADC_GetConversionValue)
    i.ADC_GetFlagStatus                      0x08000b60   Section        0  stm32f10x_adc.o(i.ADC_GetFlagStatus)
    i.ADC_GetResetCalibrationStatus          0x08000b72   Section        0  stm32f10x_adc.o(i.ADC_GetResetCalibrationStatus)
    i.ADC_Init                               0x08000b88   Section        0  stm32f10x_adc.o(i.ADC_Init)
    i.ADC_RegularChannelConfig               0x08000bd8   Section        0  stm32f10x_adc.o(i.ADC_RegularChannelConfig)
    i.ADC_ResetCalibration                   0x08000c90   Section        0  stm32f10x_adc.o(i.ADC_ResetCalibration)
    i.ADC_SoftwareStartConvCmd               0x08000c9a   Section        0  stm32f10x_adc.o(i.ADC_SoftwareStartConvCmd)
    i.ADC_StartCalibration                   0x08000cb0   Section        0  stm32f10x_adc.o(i.ADC_StartCalibration)
    i.ADC_TempSensorVrefintCmd               0x08000cbc   Section        0  stm32f10x_adc.o(i.ADC_TempSensorVrefintCmd)
    i.BusFault_Handler                       0x08000ce0   Section        0  stm32f10x_it.o(i.BusFault_Handler)
    i.CmdError                               0x08000ce4   Section        0  sd.o(i.CmdError)
    i.CmdResp1Error                          0x08000d14   Section        0  sd.o(i.CmdResp1Error)
    i.CmdResp2Error                          0x08000d74   Section        0  sd.o(i.CmdResp2Error)
    i.CmdResp3Error                          0x08000dc8   Section        0  sd.o(i.CmdResp3Error)
    i.CmdResp6Error                          0x08000e00   Section        0  sd.o(i.CmdResp6Error)
    i.CmdResp7Error                          0x08000e90   Section        0  sd.o(i.CmdResp7Error)
    i.DMA_ClearFlag                          0x08000edc   Section        0  stm32f10x_dma.o(i.DMA_ClearFlag)
    i.DMA_Cmd                                0x08000ef8   Section        0  stm32f10x_dma.o(i.DMA_Cmd)
    i.DMA_DeInit                             0x08000f10   Section        0  stm32f10x_dma.o(i.DMA_DeInit)
    i.DMA_GetFlagStatus                      0x0800105c   Section        0  stm32f10x_dma.o(i.DMA_GetFlagStatus)
    i.DMA_Init                               0x08001088   Section        0  stm32f10x_dma.o(i.DMA_Init)
    i.DMA_SetCurrDataCounter                 0x080010c4   Section        0  stm32f10x_dma.o(i.DMA_SetCurrDataCounter)
    i.DebugMon_Handler                       0x080010c8   Section        0  stm32f10x_it.o(i.DebugMon_Handler)
    i.EXTI15_10_IRQHandler                   0x080010cc   Section        0  key.o(i.EXTI15_10_IRQHandler)
    i.EXTI_ClearITPendingBit                 0x08001128   Section        0  stm32f10x_exti.o(i.EXTI_ClearITPendingBit)
    i.EXTI_GetITStatus                       0x08001134   Section        0  stm32f10x_exti.o(i.EXTI_GetITStatus)
    i.EXTI_Init                              0x0800115c   Section        0  stm32f10x_exti.o(i.EXTI_Init)
    i.FindSCR                                0x080011f0   Section        0  sd.o(i.FindSCR)
    i.GPIO_EXTILineConfig                    0x08001384   Section        0  stm32f10x_gpio.o(i.GPIO_EXTILineConfig)
    i.GPIO_Init                              0x080013c4   Section        0  stm32f10x_gpio.o(i.GPIO_Init)
    i.GPIO_PinRemapConfig                    0x080014dc   Section        0  stm32f10x_gpio.o(i.GPIO_PinRemapConfig)
    i.GPIO_ReadInputDataBit                  0x0800156c   Section        0  stm32f10x_gpio.o(i.GPIO_ReadInputDataBit)
    i.GPIO_ResetBits                         0x0800157e   Section        0  stm32f10x_gpio.o(i.GPIO_ResetBits)
    i.GPIO_SetBits                           0x08001582   Section        0  stm32f10x_gpio.o(i.GPIO_SetBits)
    i.Get_HzMat                              0x08001588   Section        0  text.o(i.Get_HzMat)
    i.Get_Temprate                           0x08001668   Section        0  adc.o(i.Get_Temprate)
    i.HardFault_Handler                      0x080016f0   Section        0  stm32f10x_it.o(i.HardFault_Handler)
    i.IIC_ReceiveByte                        0x080016f4   Section        0  power.o(i.IIC_ReceiveByte)
    i.IIC_SendByte                           0x08001744   Section        0  power.o(i.IIC_SendByte)
    i.IIC_SendNoAck                          0x08001798   Section        0  power.o(i.IIC_SendNoAck)
    i.IIC_Start                              0x080017c4   Section        0  power.o(i.IIC_Start)
    i.IIC_Stop                               0x08001804   Section        0  power.o(i.IIC_Stop)
    i.IIC_WaitAck                            0x08001838   Section        0  power.o(i.IIC_WaitAck)
    i.INTX_DISABLE                           0x08001888   Section        0  sys.o(i.INTX_DISABLE)
    i.INTX_ENABLE                            0x0800188c   Section        0  sys.o(i.INTX_ENABLE)
    i.IP5328P_BatCurrent                     0x08001890   Section        0  power.o(i.IP5328P_BatCurrent)
    i.IP5328P_BatVoltage                     0x0800190c   Section        0  power.o(i.IP5328P_BatVoltage)
    i.IP5328P_Read                           0x08001990   Section        0  power.o(i.IP5328P_Read)
    i.IP5328_delay                           0x080019cc   Section        0  power.o(i.IP5328_delay)
    IP5328_delay                             0x080019cd   Thumb Code    10  power.o(i.IP5328_delay)
    i.IsCardProgramming                      0x080019d8   Section        0  sd.o(i.IsCardProgramming)
    i.Key_IO_Init                            0x08001a74   Section        0  key.o(i.Key_IO_Init)
    i.LCDDebug                               0x08001b38   Section        0  tft.o(i.LCDDebug)
    i.LCD_Address_Set                        0x08001b9e   Section        0  tft.o(i.LCD_Address_Set)
    i.LCD_Color_Fill                         0x08001bd8   Section        0  tft.o(i.LCD_Color_Fill)
    i.LCD_DrawLine                           0x08001cc8   Section        0  tft.o(i.LCD_DrawLine)
    i.LCD_DrawPoint                          0x08001d74   Section        0  tft.o(i.LCD_DrawPoint)
    i.LCD_DrawRectangle                      0x08001d90   Section        0  tft.o(i.LCD_DrawRectangle)
    i.LCD_Fill                               0x08001ddc   Section        0  tft.o(i.LCD_Fill)
    i.LCD_Init                               0x08001ec8   Section        0  tft.o(i.LCD_Init)
    i.LCD_ShowChar                           0x08002078   Section        0  tft.o(i.LCD_ShowChar)
    i.LCD_ShowString                         0x080021d0   Section        0  tft.o(i.LCD_ShowString)
    i.LCD_WR_DATA                            0x08002234   Section        0  tft.o(i.LCD_WR_DATA)
    LCD_WR_DATA                              0x08002235   Thumb Code    18  tft.o(i.LCD_WR_DATA)
    i.LCD_WR_DATA8                           0x08002246   Section        0  tft.o(i.LCD_WR_DATA8)
    LCD_WR_DATA8                             0x08002247   Thumb Code    12  tft.o(i.LCD_WR_DATA8)
    i.LCD_WR_REG                             0x08002254   Section        0  tft.o(i.LCD_WR_REG)
    LCD_WR_REG                               0x08002255   Thumb Code    32  tft.o(i.LCD_WR_REG)
    i.LCD_Writ_Bus                           0x08002278   Section        0  tft.o(i.LCD_Writ_Bus)
    LCD_Writ_Bus                             0x08002279   Thumb Code    34  tft.o(i.LCD_Writ_Bus)
    i.Load_Animation                         0x080022a0   Section        0  interface.o(i.Load_Animation)
    i.MCU_Temperature_ADC_Init               0x0800232c   Section        0  adc.o(i.MCU_Temperature_ADC_Init)
    i.MYDMA_Config1                          0x080023a8   Section        0  tft.o(i.MYDMA_Config1)
    MYDMA_Config1                            0x080023a9   Thumb Code    86  tft.o(i.MYDMA_Config1)
    i.MYDMA_Enable                           0x08002408   Section        0  tft.o(i.MYDMA_Enable)
    MYDMA_Enable                             0x08002409   Thumb Code    32  tft.o(i.MYDMA_Enable)
    i.MemManage_Handler                      0x08002430   Section        0  stm32f10x_it.o(i.MemManage_Handler)
    i.NMI_Handler                            0x08002434   Section        0  stm32f10x_it.o(i.NMI_Handler)
    i.NVIC_Init                              0x08002438   Section        0  misc.o(i.NVIC_Init)
    i.NVIC_PriorityGroupConfig               0x080024a8   Section        0  misc.o(i.NVIC_PriorityGroupConfig)
    i.PendSV_Handler                         0x080024bc   Section        0  stm32f10x_it.o(i.PendSV_Handler)
    i.Power_Get_Init                         0x080024c0   Section        0  power.o(i.Power_Get_Init)
    i.RCC_ADCCLKConfig                       0x080024f4   Section        0  stm32f10x_rcc.o(i.RCC_ADCCLKConfig)
    i.RCC_AHBPeriphClockCmd                  0x0800250c   Section        0  stm32f10x_rcc.o(i.RCC_AHBPeriphClockCmd)
    i.RCC_APB1PeriphClockCmd                 0x0800252c   Section        0  stm32f10x_rcc.o(i.RCC_APB1PeriphClockCmd)
    i.RCC_APB2PeriphClockCmd                 0x0800254c   Section        0  stm32f10x_rcc.o(i.RCC_APB2PeriphClockCmd)
    i.RCC_APB2PeriphResetCmd                 0x0800256c   Section        0  stm32f10x_rcc.o(i.RCC_APB2PeriphResetCmd)
    i.RCC_GetClocksFreq                      0x0800258c   Section        0  stm32f10x_rcc.o(i.RCC_GetClocksFreq)
    i.RGB_IO_Init                            0x08002660   Section        0  led.o(i.RGB_IO_Init)
    i.SDA_IN                                 0x08002694   Section        0  power.o(i.SDA_IN)
    SDA_IN                                   0x08002695   Thumb Code    24  power.o(i.SDA_IN)
    i.SDA_OUT                                0x080026b0   Section        0  power.o(i.SDA_OUT)
    SDA_OUT                                  0x080026b1   Thumb Code    30  power.o(i.SDA_OUT)
    i.SDEnWideBus                            0x080026d4   Section        0  sd.o(i.SDEnWideBus)
    i.SDIO_ClearFlag                         0x08002780   Section        0  stm32f10x_sdio.o(i.SDIO_ClearFlag)
    i.SDIO_ClockCmd                          0x0800278c   Section        0  stm32f10x_sdio.o(i.SDIO_ClockCmd)
    i.SDIO_Clock_Set                         0x08002798   Section        0  sd.o(i.SDIO_Clock_Set)
    i.SDIO_DMACmd                            0x080027ac   Section        0  stm32f10x_sdio.o(i.SDIO_DMACmd)
    i.SDIO_DataConfig                        0x080027b8   Section        0  stm32f10x_sdio.o(i.SDIO_DataConfig)
    i.SDIO_DeInit                            0x080027e8   Section        0  stm32f10x_sdio.o(i.SDIO_DeInit)
    i.SDIO_GetFlagStatus                     0x0800280c   Section        0  stm32f10x_sdio.o(i.SDIO_GetFlagStatus)
    i.SDIO_GetPowerState                     0x08002824   Section        0  stm32f10x_sdio.o(i.SDIO_GetPowerState)
    i.SDIO_IRQHandler                        0x08002834   Section        0  sd.o(i.SDIO_IRQHandler)
    i.SDIO_Init                              0x0800283c   Section        0  stm32f10x_sdio.o(i.SDIO_Init)
    i.SDIO_ReadData                          0x0800286c   Section        0  stm32f10x_sdio.o(i.SDIO_ReadData)
    i.SDIO_SendCommand                       0x08002878   Section        0  stm32f10x_sdio.o(i.SDIO_SendCommand)
    i.SDIO_SetPowerState                     0x080028a4   Section        0  stm32f10x_sdio.o(i.SDIO_SetPowerState)
    i.SDIO_WriteData                         0x080028c0   Section        0  stm32f10x_sdio.o(i.SDIO_WriteData)
    i.SD_Casd_InterFace                      0x080028cc   Section        0  interface.o(i.SD_Casd_InterFace)
    i.SD_DMA_Config                          0x08002a24   Section        0  sd.o(i.SD_DMA_Config)
    i.SD_EnableWideBusOperation              0x08002a8c   Section        0  sd.o(i.SD_EnableWideBusOperation)
    i.SD_GetCardInfo                         0x08002af4   Section        0  sd.o(i.SD_GetCardInfo)
    i.SD_IFace_information                   0x08002e04   Section        0  sd_iface.o(i.SD_IFace_information)
    i.SD_Init                                0x08002fb0   Section        0  sd.o(i.SD_Init)
    i.SD_InitializeCards                     0x08003094   Section        0  sd.o(i.SD_InitializeCards)
    i.SD_Picture_IFace                       0x080031e8   Section        0  sd_iface.o(i.SD_Picture_IFace)
    i.SD_PowerON                             0x080035fc   Section        0  sd.o(i.SD_PowerON)
    i.SD_ProcessIRQSrc                       0x080037d8   Section        0  sd.o(i.SD_ProcessIRQSrc)
    i.SD_ReadBlock                           0x08003914   Section        0  sd.o(i.SD_ReadBlock)
    i.SD_ReadDisk                            0x08003b6c   Section        0  sd.o(i.SD_ReadDisk)
    i.SD_ReadMultiBlocks                     0x08003c04   Section        0  sd.o(i.SD_ReadMultiBlocks)
    i.SD_SelectDeselect                      0x08003eec   Section        0  sd.o(i.SD_SelectDeselect)
    i.SD_SetDeviceMode                       0x08003f1c   Section        0  sd.o(i.SD_SetDeviceMode)
    i.SD_TXET_IFace                          0x08003f34   Section        0  sd_iface.o(i.SD_TXET_IFace)
    i.SD_WriteBlock                          0x08004004   Section        0  sd.o(i.SD_WriteBlock)
    i.SD_WriteDisk                           0x08004378   Section        0  sd.o(i.SD_WriteDisk)
    i.SD_WriteMultiBlocks                    0x08004410   Section        0  sd.o(i.SD_WriteMultiBlocks)
    i.SPI1_ReadWriteByte                     0x080047d0   Section        0  w25q64.o(i.SPI1_ReadWriteByte)
    i.SPI1_SetSpeed                          0x08004824   Section        0  w25q64.o(i.SPI1_SetSpeed)
    i.SPI_Cmd                                0x0800484c   Section        0  stm32f10x_spi.o(i.SPI_Cmd)
    i.SPI_I2S_DMACmd                         0x08004864   Section        0  stm32f10x_spi.o(i.SPI_I2S_DMACmd)
    i.SPI_I2S_GetFlagStatus                  0x08004876   Section        0  stm32f10x_spi.o(i.SPI_I2S_GetFlagStatus)
    i.SPI_I2S_ReceiveData                    0x08004888   Section        0  stm32f10x_spi.o(i.SPI_I2S_ReceiveData)
    i.SPI_I2S_SendData                       0x0800488e   Section        0  stm32f10x_spi.o(i.SPI_I2S_SendData)
    i.SPI_Init                               0x08004892   Section        0  stm32f10x_spi.o(i.SPI_Init)
    i.SVC_Handler                            0x080048ce   Section        0  stm32f10x_it.o(i.SVC_Handler)
    i.SetSysClock                            0x080048d0   Section        0  system_stm32f10x.o(i.SetSysClock)
    SetSysClock                              0x080048d1   Thumb Code     8  system_stm32f10x.o(i.SetSysClock)
    i.SetSysClockTo72                        0x080048d8   Section        0  system_stm32f10x.o(i.SetSysClockTo72)
    SetSysClockTo72                          0x080048d9   Thumb Code   214  system_stm32f10x.o(i.SetSysClockTo72)
    i.Show_Font                              0x080049b8   Section        0  text.o(i.Show_Font)
    i.Show_Menu_All                          0x08004a74   Section        0  interface.o(i.Show_Menu_All)
    i.Show_Menu_One                          0x08004ab4   Section        0  interface.o(i.Show_Menu_One)
    i.Show_Str                               0x08004af4   Section        0  text.o(i.Show_Str)
    i.SysTick_CLKSourceConfig                0x08004bbe   Section        0  misc.o(i.SysTick_CLKSourceConfig)
    i.SysTick_Handler                        0x08004be6   Section        0  stm32f10x_it.o(i.SysTick_Handler)
    i.SystemInit                             0x08004be8   Section        0  system_stm32f10x.o(i.SystemInit)
    i.TFT_SPI_Init                           0x08004c48   Section        0  tft.o(i.TFT_SPI_Init)
    TFT_SPI_Init                             0x08004c49   Thumb Code   186  tft.o(i.TFT_SPI_Init)
    i.TIM7_IRQHandler                        0x08004d10   Section        0  usart.o(i.TIM7_IRQHandler)
    i.TIM7_Set                               0x08004d40   Section        0  usart.o(i.TIM7_Set)
    i.TIM_ClearITPendingBit                  0x08004d68   Section        0  stm32f10x_tim.o(i.TIM_ClearITPendingBit)
    i.TIM_Cmd                                0x08004d6e   Section        0  stm32f10x_tim.o(i.TIM_Cmd)
    i.TIM_GetITStatus                        0x08004d86   Section        0  stm32f10x_tim.o(i.TIM_GetITStatus)
    i.TIM_SetCounter                         0x08004da8   Section        0  stm32f10x_tim.o(i.TIM_SetCounter)
    i.T_Get_Adc                              0x08004dac   Section        0  adc.o(i.T_Get_Adc)
    T_Get_Adc                                0x08004dad   Thumb Code    46  adc.o(i.T_Get_Adc)
    i.T_Get_Adc_Average                      0x08004de0   Section        0  adc.o(i.T_Get_Adc_Average)
    T_Get_Adc_Average                        0x08004de1   Thumb Code    46  adc.o(i.T_Get_Adc_Average)
    i.UART4_IRQHandler                       0x08004e10   Section        0  usart.o(i.UART4_IRQHandler)
    i.USART1_IRQHandler                      0x08004e74   Section        0  usart.o(i.USART1_IRQHandler)
    i.USART_Cmd                              0x08004efc   Section        0  stm32f10x_usart.o(i.USART_Cmd)
    i.USART_GetITStatus                      0x08004f14   Section        0  stm32f10x_usart.o(i.USART_GetITStatus)
    i.USART_ITConfig                         0x08004f68   Section        0  stm32f10x_usart.o(i.USART_ITConfig)
    i.USART_Init                             0x08004fb4   Section        0  stm32f10x_usart.o(i.USART_Init)
    i.USART_ReceiveData                      0x0800508c   Section        0  stm32f10x_usart.o(i.USART_ReceiveData)
    i.UsageFault_Handler                     0x08005096   Section        0  stm32f10x_it.o(i.UsageFault_Handler)
    i.User_Main_InterFace                    0x0800509c   Section        0  interface.o(i.User_Main_InterFace)
    i.User_Modules_InterFace                 0x08005268   Section        0  interface.o(i.User_Modules_InterFace)
    i.W25QXX_Erase_Sector                    0x08005380   Section        0  w25q64.o(i.W25QXX_Erase_Sector)
    i.W25QXX_Read                            0x080053d8   Section        0  w25q64.o(i.W25QXX_Read)
    i.W25QXX_ReadID                          0x08005428   Section        0  w25q64.o(i.W25QXX_ReadID)
    i.W25QXX_ReadSR                          0x08005470   Section        0  w25q64.o(i.W25QXX_ReadSR)
    i.W25QXX_WAKEUP                          0x0800549c   Section        0  w25q64.o(i.W25QXX_WAKEUP)
    i.W25QXX_Wait_Busy                       0x080054c4   Section        0  w25q64.o(i.W25QXX_Wait_Busy)
    i.W25QXX_Write                           0x080054d8   Section        0  w25q64.o(i.W25QXX_Write)
    i.W25QXX_Write_Enable                    0x08005590   Section        0  w25q64.o(i.W25QXX_Write_Enable)
    i.W25QXX_Write_NoCheck                   0x080055b0   Section        0  w25q64.o(i.W25QXX_Write_NoCheck)
    i.W25QXX_Write_Page                      0x080055f8   Section        0  w25q64.o(i.W25QXX_Write_Page)
    i.W25Qxx_SPIAndIO_Init                   0x0800564c   Section        0  w25q64.o(i.W25Qxx_SPIAndIO_Init)
    i.__0printf                              0x08005750   Section        0  printfa.o(i.__0printf)
    i.__0sprintf                             0x08005770   Section        0  printfa.o(i.__0sprintf)
    i.__scatterload_copy                     0x08005798   Section       14  handlers.o(i.__scatterload_copy)
    i.__scatterload_null                     0x080057a6   Section        2  handlers.o(i.__scatterload_null)
    i.__scatterload_zeroinit                 0x080057a8   Section       14  handlers.o(i.__scatterload_zeroinit)
    i._fp_digits                             0x080057b8   Section        0  printfa.o(i._fp_digits)
    _fp_digits                               0x080057b9   Thumb Code   366  printfa.o(i._fp_digits)
    i._printf_core                           0x0800593c   Section        0  printfa.o(i._printf_core)
    _printf_core                             0x0800593d   Thumb Code  1704  printfa.o(i._printf_core)
    i._printf_post_padding                   0x08005ff0   Section        0  printfa.o(i._printf_post_padding)
    _printf_post_padding                     0x08005ff1   Thumb Code    36  printfa.o(i._printf_post_padding)
    i._printf_pre_padding                    0x08006014   Section        0  printfa.o(i._printf_pre_padding)
    _printf_pre_padding                      0x08006015   Thumb Code    46  printfa.o(i._printf_pre_padding)
    i._sputc                                 0x08006042   Section        0  printfa.o(i._sputc)
    _sputc                                   0x08006043   Thumb Code    10  printfa.o(i._sputc)
    i.ai_draw_init                           0x0800604c   Section        0  piclib.o(i.ai_draw_init)
    i.ai_load_picfile                        0x08006158   Section        0  piclib.o(i.ai_load_picfile)
    i.alloc_pool                             0x08006238   Section        0  tjpgd.o(i.alloc_pool)
    alloc_pool                               0x08006239   Thumb Code    30  tjpgd.o(i.alloc_pool)
    i.bitext                                 0x08006256   Section        0  tjpgd.o(i.bitext)
    bitext                                   0x08006257   Thumb Code   144  tjpgd.o(i.bitext)
    i.block_idct                             0x080062e8   Section        0  tjpgd.o(i.block_idct)
    block_idct                               0x080062e9   Thumb Code   676  tjpgd.o(i.block_idct)
    i.char_upper                             0x08006590   Section        0  exfuns.o(i.char_upper)
    i.check_fs                               0x080065ac   Section        0  ff.o(i.check_fs)
    check_fs                                 0x080065ad   Thumb Code   140  ff.o(i.check_fs)
    i.chk_chr                                0x0800663c   Section        0  ff.o(i.chk_chr)
    chk_chr                                  0x0800663d   Thumb Code    20  ff.o(i.chk_chr)
    i.clmt_clust                             0x08006650   Section        0  ff.o(i.clmt_clust)
    clmt_clust                               0x08006651   Thumb Code    50  ff.o(i.clmt_clust)
    i.clust2sect                             0x08006682   Section        0  ff.o(i.clust2sect)
    i.cmp_lfn                                0x0800669c   Section        0  ff.o(i.cmp_lfn)
    cmp_lfn                                  0x0800669d   Thumb Code   138  ff.o(i.cmp_lfn)
    i.convert_from_bytes_to_power_of_two     0x0800672c   Section        0  sd.o(i.convert_from_bytes_to_power_of_two)
    i.create_chain                           0x0800673e   Section        0  ff.o(i.create_chain)
    create_chain                             0x0800673f   Thumb Code   214  ff.o(i.create_chain)
    i.create_huffman_tbl                     0x08006814   Section        0  tjpgd.o(i.create_huffman_tbl)
    create_huffman_tbl                       0x08006815   Thumb Code   308  tjpgd.o(i.create_huffman_tbl)
    i.create_name                            0x08006948   Section        0  ff.o(i.create_name)
    create_name                              0x08006949   Thumb Code   604  ff.o(i.create_name)
    i.create_qt_tbl                          0x08006bb8   Section        0  tjpgd.o(i.create_qt_tbl)
    create_qt_tbl                            0x08006bb9   Thumb Code   108  tjpgd.o(i.create_qt_tbl)
    i.delay_init                             0x08006c2c   Section        0  delay.o(i.delay_init)
    i.delay_ms                               0x08006c70   Section        0  delay.o(i.delay_ms)
    i.delay_us                               0x08006cbc   Section        0  delay.o(i.delay_us)
    i.dir_alloc                              0x08006d08   Section        0  ff.o(i.dir_alloc)
    dir_alloc                                0x08006d09   Thumb Code    92  ff.o(i.dir_alloc)
    i.dir_find                               0x08006d64   Section        0  ff.o(i.dir_find)
    dir_find                                 0x08006d65   Thumb Code   234  ff.o(i.dir_find)
    i.dir_next                               0x08006e4e   Section        0  ff.o(i.dir_next)
    dir_next                                 0x08006e4f   Thumb Code   270  ff.o(i.dir_next)
    i.dir_read                               0x08006f5c   Section        0  ff.o(i.dir_read)
    dir_read                                 0x08006f5d   Thumb Code   198  ff.o(i.dir_read)
    i.dir_register                           0x08007022   Section        0  ff.o(i.dir_register)
    dir_register                             0x08007023   Thumb Code   298  ff.o(i.dir_register)
    i.dir_sdi                                0x0800714c   Section        0  ff.o(i.dir_sdi)
    i.disk_initialize                        0x080071ec   Section        0  diskio.o(i.disk_initialize)
    i.disk_ioctl                             0x08007230   Section        0  diskio.o(i.disk_ioctl)
    i.disk_read                              0x080072e4   Section        0  diskio.o(i.disk_read)
    i.disk_status                            0x0800735e   Section        0  diskio.o(i.disk_status)
    i.disk_write                             0x08007364   Section        0  diskio.o(i.disk_write)
    i.exf_getfree                            0x080073de   Section        0  exfuns.o(i.exf_getfree)
    i.exfuns_init                            0x08007428   Section        0  exfuns.o(i.exfuns_init)
    i.f_close                                0x080074ac   Section        0  ff.o(i.f_close)
    i.f_getfree                              0x080074cc   Section        0  ff.o(i.f_getfree)
    i.f_lseek                                0x080075ce   Section        0  ff.o(i.f_lseek)
    i.f_mount                                0x0800787c   Section        0  ff.o(i.f_mount)
    i.f_open                                 0x080078d8   Section        0  ff.o(i.f_open)
    i.f_opendir                              0x08007a58   Section        0  ff.o(i.f_opendir)
    i.f_read                                 0x08007ae0   Section        0  ff.o(i.f_read)
    i.f_readdir                              0x08007c90   Section        0  ff.o(i.f_readdir)
    i.f_sync                                 0x08007d02   Section        0  ff.o(i.f_sync)
    i.f_typetell                             0x08007db4   Section        0  exfuns.o(i.f_typetell)
    i.ff_convert                             0x08007e74   Section        0  cc936.o(i.ff_convert)
    i.ff_memalloc                            0x08007ef0   Section        0  diskio.o(i.ff_memalloc)
    i.ff_memfree                             0x08007efe   Section        0  diskio.o(i.ff_memfree)
    i.ff_wtoupper                            0x08007f0c   Section        0  cc936.o(i.ff_wtoupper)
    i.find_volume                            0x08007f44   Section        0  ff.o(i.find_volume)
    find_volume                              0x08007f45   Thumb Code   914  ff.o(i.find_volume)
    i.fit_lfn                                0x0800830c   Section        0  ff.o(i.fit_lfn)
    fit_lfn                                  0x0800830d   Thumb Code   122  ff.o(i.fit_lfn)
    i.follow_path                            0x0800838c   Section        0  ff.o(i.follow_path)
    follow_path                              0x0800838d   Thumb Code   144  ff.o(i.follow_path)
    i.font_init                              0x0800841c   Section        0  fontupd.o(i.font_init)
    i.fputc                                  0x08008460   Section        0  usart.o(i.fputc)
    i.fupd_prog                              0x0800847c   Section        0  fontupd.o(i.fupd_prog)
    i.gen_numname                            0x080084f8   Section        0  ff.o(i.gen_numname)
    gen_numname                              0x080084f9   Thumb Code   198  ff.o(i.gen_numname)
    i.get_fat                                0x080085c4   Section        0  ff.o(i.get_fat)
    i.get_fattime                            0x080086b6   Section        0  diskio.o(i.get_fattime)
    i.get_fileinfo                           0x080086ba   Section        0  ff.o(i.get_fileinfo)
    get_fileinfo                             0x080086bb   Thumb Code   272  ff.o(i.get_fileinfo)
    i.get_ldnumber                           0x080087ca   Section        0  ff.o(i.get_ldnumber)
    get_ldnumber                             0x080087cb   Thumb Code    74  ff.o(i.get_ldnumber)
    i.gif_check_head                         0x08008814   Section        0  gif.o(i.gif_check_head)
    i.gif_clear2bkcolor                      0x0800886c   Section        0  gif.o(i.gif_clear2bkcolor)
    i.gif_decode                             0x08008a60   Section        0  gif.o(i.gif_decode)
    i.gif_dispimage                          0x08008b8c   Section        0  gif.o(i.gif_dispimage)
    i.gif_drawimage                          0x08008db4   Section        0  gif.o(i.gif_drawimage)
    i.gif_getdatablock                       0x08008f08   Section        0  gif.o(i.gif_getdatablock)
    i.gif_getinfo                            0x08008f68   Section        0  gif.o(i.gif_getinfo)
    i.gif_getnextbyte                        0x08008fae   Section        0  gif.o(i.gif_getnextbyte)
    i.gif_getnextcode                        0x08009310   Section        0  gif.o(i.gif_getnextcode)
    i.gif_getrgb565                          0x080094dc   Section        0  gif.o(i.gif_getrgb565)
    i.gif_initlzw                            0x080094f8   Section        0  gif.o(i.gif_initlzw)
    i.gif_readcolortbl                       0x08009590   Section        0  gif.o(i.gif_readcolortbl)
    i.gif_readextension                      0x080095d0   Section        0  gif.o(i.gif_readextension)
    i.gif_recovergctbl                       0x08009670   Section        0  gif.o(i.gif_recovergctbl)
    i.gif_savegctbl                          0x08009696   Section        0  gif.o(i.gif_savegctbl)
    i.huffext                                0x080096bc   Section        0  tjpgd.o(i.huffext)
    huffext                                  0x080096bd   Thumb Code   192  tjpgd.o(i.huffext)
    i.is_element_ok                          0x0800977c   Section        0  piclib.o(i.is_element_ok)
    i.jd_decomp                              0x080097a4   Section        0  tjpgd.o(i.jd_decomp)
    i.jd_prepare                             0x08009846   Section        0  tjpgd.o(i.jd_prepare)
    i.jpeg_freeall                           0x08009be4   Section        0  tjpgd.o(i.jpeg_freeall)
    i.jpeg_in_func                           0x08009c0c   Section        0  tjpgd.o(i.jpeg_in_func)
    i.jpeg_mallocall                         0x08009c3c   Section        0  tjpgd.o(i.jpeg_mallocall)
    i.jpeg_out_func_fill                     0x08009c90   Section        0  tjpgd.o(i.jpeg_out_func_fill)
    i.jpeg_out_func_point                    0x08009ce4   Section        0  tjpgd.o(i.jpeg_out_func_point)
    i.jpg_decode                             0x08009da4   Section        0  tjpgd.o(i.jpg_decode)
    i.ld_clust                               0x08009ea8   Section        0  ff.o(i.ld_clust)
    ld_clust                                 0x08009ea9   Thumb Code    32  ff.o(i.ld_clust)
    i.main                                   0x08009ec8   Section        0  main.o(i.main)
    i.mcu_load                               0x0800a1c4   Section        0  tjpgd.o(i.mcu_load)
    mcu_load                                 0x0800a1c5   Thumb Code   476  tjpgd.o(i.mcu_load)
    i.mcu_output                             0x0800a3a4   Section        0  tjpgd.o(i.mcu_output)
    mcu_output                               0x0800a3a5   Thumb Code   910  tjpgd.o(i.mcu_output)
    i.mem_cmp                                0x0800a738   Section        0  ff.o(i.mem_cmp)
    mem_cmp                                  0x0800a739   Thumb Code    38  ff.o(i.mem_cmp)
    i.mem_cpy                                0x0800a75e   Section        0  ff.o(i.mem_cpy)
    mem_cpy                                  0x0800a75f   Thumb Code    26  ff.o(i.mem_cpy)
    i.mem_set                                0x0800a778   Section        0  ff.o(i.mem_set)
    mem_set                                  0x0800a779   Thumb Code    20  ff.o(i.mem_set)
    i.move_window                            0x0800a78c   Section        0  ff.o(i.move_window)
    move_window                              0x0800a78d   Thumb Code    52  ff.o(i.move_window)
    i.my_mem_free                            0x0800a7c0   Section        0  malloc.o(i.my_mem_free)
    i.my_mem_init                            0x0800a82c   Section        0  malloc.o(i.my_mem_init)
    i.my_mem_malloc                          0x0800a870   Section        0  malloc.o(i.my_mem_malloc)
    i.my_mem_perused                         0x0800a918   Section        0  malloc.o(i.my_mem_perused)
    i.myfree                                 0x0800a958   Section        0  malloc.o(i.myfree)
    i.mymalloc                               0x0800a97c   Section        0  malloc.o(i.mymalloc)
    i.mymemset                               0x0800a9a4   Section        0  malloc.o(i.mymemset)
    i.pic_get_tnum                           0x0800a9b8   Section        0  user_fat.o(i.pic_get_tnum)
    i.pic_memalloc                           0x0800aa24   Section        0  piclib.o(i.pic_memalloc)
    i.pic_memfree                            0x0800aa32   Section        0  piclib.o(i.pic_memfree)
    i.pick_lfn                               0x0800aa40   Section        0  ff.o(i.pick_lfn)
    pick_lfn                                 0x0800aa41   Thumb Code   112  ff.o(i.pick_lfn)
    i.piclib_draw_hline                      0x0800aab4   Section        0  piclib.o(i.piclib_draw_hline)
    i.piclib_fill_color                      0x0800aae0   Section        0  piclib.o(i.piclib_fill_color)
    i.piclib_init                            0x0800ab0c   Section        0  piclib.o(i.piclib_init)
    i.put_fat                                0x0800ab54   Section        0  ff.o(i.put_fat)
    i.remove_chain                           0x0800ac96   Section        0  ff.o(i.remove_chain)
    remove_chain                             0x0800ac97   Thumb Code   108  ff.o(i.remove_chain)
    i.restart                                0x0800ad02   Section        0  tjpgd.o(i.restart)
    restart                                  0x0800ad03   Thumb Code   112  tjpgd.o(i.restart)
    i.st_clust                               0x0800ad72   Section        0  ff.o(i.st_clust)
    st_clust                                 0x0800ad73   Thumb Code    16  ff.o(i.st_clust)
    i.stdbmp_decode                          0x0800ad84   Section        0  bmp.o(i.stdbmp_decode)
    i.sum_sfn                                0x0800b068   Section        0  ff.o(i.sum_sfn)
    sum_sfn                                  0x0800b069   Thumb Code    32  ff.o(i.sum_sfn)
    i.sync_fs                                0x0800b088   Section        0  ff.o(i.sync_fs)
    sync_fs                                  0x0800b089   Thumb Code   200  ff.o(i.sync_fs)
    i.sync_window                            0x0800b150   Section        0  ff.o(i.sync_window)
    sync_window                              0x0800b151   Thumb Code    82  ff.o(i.sync_window)
    i.uart_init                              0x0800b1a4   Section        0  usart.o(i.uart_init)
    i.updata_fontx                           0x0800b244   Section        0  fontupd.o(i.updata_fontx)
    i.update_font                            0x0800b3a8   Section        0  fontupd.o(i.update_font)
    i.validate                               0x0800b70c   Section        0  ff.o(i.validate)
    validate                                 0x0800b70d   Thumb Code    54  ff.o(i.validate)
    .constdata                               0x0800b742   Section    13304  tft.o(.constdata)
    .constdata                               0x0800eb3c   Section       24  malloc.o(.constdata)
    .constdata                               0x0800eb54   Section       58  ff.o(.constdata)
    LfnOfs                                   0x0800eb54   Data          13  ff.o(.constdata)
    vst                                      0x0800eb62   Data          22  ff.o(.constdata)
    cst                                      0x0800eb78   Data          22  ff.o(.constdata)
    .constdata                               0x0800eb8e   Section    175304  cc936.o(.constdata)
    uni2oem                                  0x0800eb8e   Data       87172  cc936.o(.constdata)
    oem2uni                                  0x08024012   Data       87172  cc936.o(.constdata)
    tbl_lower                                0x08039496   Data         480  cc936.o(.constdata)
    tbl_upper                                0x08039676   Data         480  cc936.o(.constdata)
    .constdata                               0x08039858   Section      312  exfuns.o(.constdata)
    .constdata                               0x08039990   Section       16  fontupd.o(.constdata)
    .constdata                               0x080399a0   Section       40  gif.o(.constdata)
    .constdata                               0x080399c8   Section     1216  tjpgd.o(.constdata)
    Zig                                      0x080399c8   Data          64  tjpgd.o(.constdata)
    Ipsf                                     0x08039a08   Data         128  tjpgd.o(.constdata)
    Clip8                                    0x08039a88   Data        1024  tjpgd.o(.constdata)
    .conststring                             0x08039e88   Section      118  interface.o(.conststring)
    .conststring                             0x08039f00   Section       96  exfuns.o(.conststring)
    .conststring                             0x08039f60   Section       95  fontupd.o(.conststring)
    .data                                    0x20000000   Section        7  main.o(.data)
    .data                                    0x20000008   Section       20  system_stm32f10x.o(.data)
    .data                                    0x2000001c   Section        1  key.o(.data)
    .data                                    0x2000001e   Section        2  tft.o(.data)
    .data                                    0x20000020   Section       16  sd.o(.data)
    CardType                                 0x20000020   Data           1  sd.o(.data)
    RCA                                      0x20000024   Data           4  sd.o(.data)
    DeviceMode                               0x20000028   Data           1  sd.o(.data)
    StopCondition                            0x20000029   Data           1  sd.o(.data)
    .data                                    0x20000030   Section       28  malloc.o(.data)
    .data                                    0x2000004c   Section      194  interface.o(.data)
    IF_Main_Spam_Flag                        0x20000108   Data           1  interface.o(.data)
    IFace_Main_Cut_Falg                      0x20000109   Data           1  interface.o(.data)
    IF_SD_Spam_Flag                          0x2000010a   Data           1  interface.o(.data)
    IFace_SD_Cut_Falg                        0x2000010b   Data           1  interface.o(.data)
    IF_Modules_Spam_Flag                     0x2000010c   Data           1  interface.o(.data)
    IFace_Modules_Cut_Falg                   0x2000010d   Data           1  interface.o(.data)
    .data                                    0x2000010e   Section        4  sd_iface.o(.data)
    SD_Information_Spam_Flag                 0x2000010e   Data           1  sd_iface.o(.data)
    SD_TXET_Spam_Flag                        0x2000010f   Data           1  sd_iface.o(.data)
    SD_Picture_Spam_Flag                     0x20000110   Data           1  sd_iface.o(.data)
    res                                      0x20000111   Data           1  sd_iface.o(.data)
    .data                                    0x20000112   Section        4  delay.o(.data)
    fac_us                                   0x20000112   Data           1  delay.o(.data)
    fac_ms                                   0x20000114   Data           2  delay.o(.data)
    .data                                    0x20000118   Section        8  usart.o(.data)
    .data                                    0x20000120   Section        2  diskio.o(.data)
    .data                                    0x20000124   Section       10  ff.o(.data)
    FatFs                                    0x20000124   Data           8  ff.o(.data)
    Fsid                                     0x2000012c   Data           2  ff.o(.data)
    .data                                    0x20000130   Section       28  exfuns.o(.data)
    .data                                    0x2000014c   Section        1  gif.o(.data)
    .data                                    0x20000150   Section       12  tjpgd.o(.data)
    .data                                    0x2000015c   Section       20  stm32f10x_rcc.o(.data)
    APBAHBPrescTable                         0x2000015c   Data          16  stm32f10x_rcc.o(.data)
    ADCPrescTable                            0x2000016c   Data           4  stm32f10x_rcc.o(.data)
    .bss                                     0x20000170   Section       40  main.o(.bss)
    .bss                                     0x20000198   Section       44  tft.o(.bss)
    .bss                                     0x200001c4   Section     4096  w25q64.o(.bss)
    .bss                                     0x200011c8   Section      704  sd.o(.bss)
    CSD_Tab                                  0x2000120c   Data          16  sd.o(.bss)
    CID_Tab                                  0x2000121c   Data          16  sd.o(.bss)
    .bss                                     0x200014a0   Section     8704  malloc.o(.bss)
    .bss                                     0x200036a0   Section       40  interface.o(.bss)
    .bss                                     0x200036c8   Section     2248  usart.o(.bss)
    .bss                                     0x20003f90   Section       33  fontupd.o(.bss)
    .bss                                     0x20003fb1   Section       60  piclib.o(.bss)
    STACK                                    0x20003ff0   Section     1024  startup_stm32f10x_hd.o(STACK)
    .ARM.__AT_0x68000000                     0x68000000   Section       32  malloc.o(.ARM.__AT_0x68000000)
    .ARM.__AT_0x68000020                     0x68000020   Section        2  malloc.o(.ARM.__AT_0x68000020)

    Global Symbols

    Symbol Name                              Value     Ov Type        Size  Object(Section)

    BuildAttributes$$THM_ISAv4$P$D$K$B$S$PE$A:L22UL41UL21$X:L11$S22US41US21$IEEE1$IW$USESV6$~STKCKD$USESV7$~SHL$OTIME$ROPI$EBA8$MICROLIB$REQ8$PRES8$EABIv2 0x00000000   Number         0  anon$$obj.o ABSOLUTE
    __ARM_use_no_argv                        0x00000000   Number         0  main.o ABSOLUTE
    __use_no_errno                           0x00000000   Number         0  useno.o ABSOLUTE
    __use_no_exception_handling              0x00000000   Number         0  useno.o ABSOLUTE
    __use_no_fp                              0x00000000   Number         0  useno.o ABSOLUTE
    __use_no_heap                            0x00000000   Number         0  useno.o ABSOLUTE
    __use_no_heap_region                     0x00000000   Number         0  useno.o ABSOLUTE
    __use_no_semihosting                     0x00000000   Number         0  useno.o ABSOLUTE
    __use_no_semihosting_swi                 0x00000000   Number         0  useno.o ABSOLUTE
    __use_no_signal_handling                 0x00000000   Number         0  useno.o ABSOLUTE
    _printf_a                                0x00000000   Number         0  stubs.o ABSOLUTE
    _printf_c                                0x00000000   Number         0  stubs.o ABSOLUTE
    _printf_charcount                        0x00000000   Number         0  stubs.o ABSOLUTE
    _printf_d                                0x00000000   Number         0  stubs.o ABSOLUTE
    _printf_e                                0x00000000   Number         0  stubs.o ABSOLUTE
    _printf_f                                0x00000000   Number         0  stubs.o ABSOLUTE
    _printf_flags                            0x00000000   Number         0  stubs.o ABSOLUTE
    _printf_fp_dec                           0x00000000   Number         0  stubs.o ABSOLUTE
    _printf_fp_hex                           0x00000000   Number         0  stubs.o ABSOLUTE
    _printf_g                                0x00000000   Number         0  stubs.o ABSOLUTE
    _printf_i                                0x00000000   Number         0  stubs.o ABSOLUTE
    _printf_int_dec                          0x00000000   Number         0  stubs.o ABSOLUTE
    _printf_l                                0x00000000   Number         0  stubs.o ABSOLUTE
    _printf_lc                               0x00000000   Number         0  stubs.o ABSOLUTE
    _printf_ll                               0x00000000   Number         0  stubs.o ABSOLUTE
    _printf_lld                              0x00000000   Number         0  stubs.o ABSOLUTE
    _printf_lli                              0x00000000   Number         0  stubs.o ABSOLUTE
    _printf_llo                              0x00000000   Number         0  stubs.o ABSOLUTE
    _printf_llu                              0x00000000   Number         0  stubs.o ABSOLUTE
    _printf_llx                              0x00000000   Number         0  stubs.o ABSOLUTE
    _printf_longlong_dec                     0x00000000   Number         0  stubs.o ABSOLUTE
    _printf_longlong_hex                     0x00000000   Number         0  stubs.o ABSOLUTE
    _printf_longlong_oct                     0x00000000   Number         0  stubs.o ABSOLUTE
    _printf_ls                               0x00000000   Number         0  stubs.o ABSOLUTE
    _printf_mbtowc                           0x00000000   Number         0  stubs.o ABSOLUTE
    _printf_n                                0x00000000   Number         0  stubs.o ABSOLUTE
    _printf_o                                0x00000000   Number         0  stubs.o ABSOLUTE
    _printf_p                                0x00000000   Number         0  stubs.o ABSOLUTE
    _printf_percent                          0x00000000   Number         0  stubs.o ABSOLUTE
    _printf_pre_padding                      0x00000000   Number         0  stubs.o ABSOLUTE
    _printf_return_value                     0x00000000   Number         0  stubs.o ABSOLUTE
    _printf_s                                0x00000000   Number         0  stubs.o ABSOLUTE
    _printf_sizespec                         0x00000000   Number         0  stubs.o ABSOLUTE
    _printf_str                              0x00000000   Number         0  stubs.o ABSOLUTE
    _printf_truncate_signed                  0x00000000   Number         0  stubs.o ABSOLUTE
    _printf_truncate_unsigned                0x00000000   Number         0  stubs.o ABSOLUTE
    _printf_u                                0x00000000   Number         0  stubs.o ABSOLUTE
    _printf_wc                               0x00000000   Number         0  stubs.o ABSOLUTE
    _printf_wctomb                           0x00000000   Number         0  stubs.o ABSOLUTE
    _printf_widthprec                        0x00000000   Number         0  stubs.o ABSOLUTE
    _printf_x                                0x00000000   Number         0  stubs.o ABSOLUTE
    __arm_fini_                               - Undefined Weak Reference
    __cpp_initialize__aeabi_                  - Undefined Weak Reference
    __cxa_finalize                            - Undefined Weak Reference
    _clock_init                               - Undefined Weak Reference
    _microlib_exit                            - Undefined Weak Reference
    __Vectors_Size                           0x00000130   Number         0  startup_stm32f10x_hd.o ABSOLUTE
    __Vectors                                0x08000000   Data           4  startup_stm32f10x_hd.o(RESET)
    __Vectors_End                            0x08000130   Data           0  startup_stm32f10x_hd.o(RESET)
    __main                                   0x08000131   Thumb Code     0  entry.o(.ARM.Collect$$$$00000000)
    _main_stk                                0x08000131   Thumb Code     0  entry2.o(.ARM.Collect$$$$00000001)
    _main_scatterload                        0x08000135   Thumb Code     0  entry5.o(.ARM.Collect$$$$00000004)
    __main_after_scatterload                 0x08000139   Thumb Code     0  entry5.o(.ARM.Collect$$$$00000004)
    _main_clock                              0x08000139   Thumb Code     0  entry7b.o(.ARM.Collect$$$$00000008)
    _main_cpp_init                           0x08000139   Thumb Code     0  entry8b.o(.ARM.Collect$$$$0000000A)
    _main_init                               0x08000139   Thumb Code     0  entry9a.o(.ARM.Collect$$$$0000000B)
    __rt_lib_shutdown_fini                   0x08000141   Thumb Code     0  entry12b.o(.ARM.Collect$$$$0000000E)
    __rt_final_cpp                           0x08000145   Thumb Code     0  entry10a.o(.ARM.Collect$$$$0000000F)
    __rt_final_exit                          0x08000145   Thumb Code     0  entry11a.o(.ARM.Collect$$$$00000011)
    Reset_Handler                            0x08000149   Thumb Code     8  startup_stm32f10x_hd.o(.text)
    ADC1_2_IRQHandler                        0x08000163   Thumb Code     0  startup_stm32f10x_hd.o(.text)
    ADC3_IRQHandler                          0x08000163   Thumb Code     0  startup_stm32f10x_hd.o(.text)
    CAN1_RX1_IRQHandler                      0x08000163   Thumb Code     0  startup_stm32f10x_hd.o(.text)
    CAN1_SCE_IRQHandler                      0x08000163   Thumb Code     0  startup_stm32f10x_hd.o(.text)
    DMA1_Channel1_IRQHandler                 0x08000163   Thumb Code     0  startup_stm32f10x_hd.o(.text)
    DMA1_Channel2_IRQHandler                 0x08000163   Thumb Code     0  startup_stm32f10x_hd.o(.text)
    DMA1_Channel3_IRQHandler                 0x08000163   Thumb Code     0  startup_stm32f10x_hd.o(.text)
    DMA1_Channel4_IRQHandler                 0x08000163   Thumb Code     0  startup_stm32f10x_hd.o(.text)
    DMA1_Channel5_IRQHandler                 0x08000163   Thumb Code     0  startup_stm32f10x_hd.o(.text)
    DMA1_Channel6_IRQHandler                 0x08000163   Thumb Code     0  startup_stm32f10x_hd.o(.text)
    DMA1_Channel7_IRQHandler                 0x08000163   Thumb Code     0  startup_stm32f10x_hd.o(.text)
    DMA2_Channel1_IRQHandler                 0x08000163   Thumb Code     0  startup_stm32f10x_hd.o(.text)
    DMA2_Channel2_IRQHandler                 0x08000163   Thumb Code     0  startup_stm32f10x_hd.o(.text)
    DMA2_Channel3_IRQHandler                 0x08000163   Thumb Code     0  startup_stm32f10x_hd.o(.text)
    DMA2_Channel4_5_IRQHandler               0x08000163   Thumb Code     0  startup_stm32f10x_hd.o(.text)
    EXTI0_IRQHandler                         0x08000163   Thumb Code     0  startup_stm32f10x_hd.o(.text)
    EXTI1_IRQHandler                         0x08000163   Thumb Code     0  startup_stm32f10x_hd.o(.text)
    EXTI2_IRQHandler                         0x08000163   Thumb Code     0  startup_stm32f10x_hd.o(.text)
    EXTI3_IRQHandler                         0x08000163   Thumb Code     0  startup_stm32f10x_hd.o(.text)
    EXTI4_IRQHandler                         0x08000163   Thumb Code     0  startup_stm32f10x_hd.o(.text)
    EXTI9_5_IRQHandler                       0x08000163   Thumb Code     0  startup_stm32f10x_hd.o(.text)
    FLASH_IRQHandler                         0x08000163   Thumb Code     0  startup_stm32f10x_hd.o(.text)
    FSMC_IRQHandler                          0x08000163   Thumb Code     0  startup_stm32f10x_hd.o(.text)
    I2C1_ER_IRQHandler                       0x08000163   Thumb Code     0  startup_stm32f10x_hd.o(.text)
    I2C1_EV_IRQHandler                       0x08000163   Thumb Code     0  startup_stm32f10x_hd.o(.text)
    I2C2_ER_IRQHandler                       0x08000163   Thumb Code     0  startup_stm32f10x_hd.o(.text)
    I2C2_EV_IRQHandler                       0x08000163   Thumb Code     0  startup_stm32f10x_hd.o(.text)
    PVD_IRQHandler                           0x08000163   Thumb Code     0  startup_stm32f10x_hd.o(.text)
    RCC_IRQHandler                           0x08000163   Thumb Code     0  startup_stm32f10x_hd.o(.text)
    RTCAlarm_IRQHandler                      0x08000163   Thumb Code     0  startup_stm32f10x_hd.o(.text)
    RTC_IRQHandler                           0x08000163   Thumb Code     0  startup_stm32f10x_hd.o(.text)
    SPI1_IRQHandler                          0x08000163   Thumb Code     0  startup_stm32f10x_hd.o(.text)
    SPI2_IRQHandler                          0x08000163   Thumb Code     0  startup_stm32f10x_hd.o(.text)
    SPI3_IRQHandler                          0x08000163   Thumb Code     0  startup_stm32f10x_hd.o(.text)
    TAMPER_IRQHandler                        0x08000163   Thumb Code     0  startup_stm32f10x_hd.o(.text)
    TIM1_BRK_IRQHandler                      0x08000163   Thumb Code     0  startup_stm32f10x_hd.o(.text)
    TIM1_CC_IRQHandler                       0x08000163   Thumb Code     0  startup_stm32f10x_hd.o(.text)
    TIM1_TRG_COM_IRQHandler                  0x08000163   Thumb Code     0  startup_stm32f10x_hd.o(.text)
    TIM1_UP_IRQHandler                       0x08000163   Thumb Code     0  startup_stm32f10x_hd.o(.text)
    TIM2_IRQHandler                          0x08000163   Thumb Code     0  startup_stm32f10x_hd.o(.text)
    TIM3_IRQHandler                          0x08000163   Thumb Code     0  startup_stm32f10x_hd.o(.text)
    TIM4_IRQHandler                          0x08000163   Thumb Code     0  startup_stm32f10x_hd.o(.text)
    TIM5_IRQHandler                          0x08000163   Thumb Code     0  startup_stm32f10x_hd.o(.text)
    TIM6_IRQHandler                          0x08000163   Thumb Code     0  startup_stm32f10x_hd.o(.text)
    TIM8_BRK_IRQHandler                      0x08000163   Thumb Code     0  startup_stm32f10x_hd.o(.text)
    TIM8_CC_IRQHandler                       0x08000163   Thumb Code     0  startup_stm32f10x_hd.o(.text)
    TIM8_TRG_COM_IRQHandler                  0x08000163   Thumb Code     0  startup_stm32f10x_hd.o(.text)
    TIM8_UP_IRQHandler                       0x08000163   Thumb Code     0  startup_stm32f10x_hd.o(.text)
    UART5_IRQHandler                         0x08000163   Thumb Code     0  startup_stm32f10x_hd.o(.text)
    USART2_IRQHandler                        0x08000163   Thumb Code     0  startup_stm32f10x_hd.o(.text)
    USART3_IRQHandler                        0x08000163   Thumb Code     0  startup_stm32f10x_hd.o(.text)
    USBWakeUp_IRQHandler                     0x08000163   Thumb Code     0  startup_stm32f10x_hd.o(.text)
    USB_HP_CAN1_TX_IRQHandler                0x08000163   Thumb Code     0  startup_stm32f10x_hd.o(.text)
    USB_LP_CAN1_RX0_IRQHandler               0x08000163   Thumb Code     0  startup_stm32f10x_hd.o(.text)
    WWDG_IRQHandler                          0x08000163   Thumb Code     0  startup_stm32f10x_hd.o(.text)
    __aeabi_ldivmod                          0x0800016d   Thumb Code    98  ldiv.o(.text)
    __aeabi_memcpy                           0x080001cf   Thumb Code    36  memcpya.o(.text)
    __aeabi_memcpy4                          0x080001cf   Thumb Code     0  memcpya.o(.text)
    __aeabi_memcpy8                          0x080001cf   Thumb Code     0  memcpya.o(.text)
    strcat                                   0x080001f3   Thumb Code    24  strcat.o(.text)
    strcmp                                   0x0800020b   Thumb Code    28  strcmp.o(.text)
    strcpy                                   0x08000227   Thumb Code    18  strcpy.o(.text)
    __aeabi_fadd                             0x08000239   Thumb Code   164  fadd.o(.text)
    __aeabi_fsub                             0x080002dd   Thumb Code     6  fadd.o(.text)
    __aeabi_frsub                            0x080002e3   Thumb Code     6  fadd.o(.text)
    __aeabi_fmul                             0x080002e9   Thumb Code   100  fmul.o(.text)
    __aeabi_fdiv                             0x0800034d   Thumb Code   124  fdiv.o(.text)
    __aeabi_dadd                             0x080003c9   Thumb Code   322  dadd.o(.text)
    __aeabi_dsub                             0x0800050b   Thumb Code     6  dadd.o(.text)
    __aeabi_drsub                            0x08000511   Thumb Code     6  dadd.o(.text)
    __aeabi_dmul                             0x08000517   Thumb Code   228  dmul.o(.text)
    __aeabi_ddiv                             0x080005fb   Thumb Code   222  ddiv.o(.text)
    __aeabi_i2f                              0x080006d9   Thumb Code    18  fflti.o(.text)
    __aeabi_ui2f                             0x080006eb   Thumb Code    10  ffltui.o(.text)
    __aeabi_f2uiz                            0x080006f5   Thumb Code    40  ffixui.o(.text)
    __aeabi_d2iz                             0x0800071d   Thumb Code    62  dfixi.o(.text)
    __aeabi_f2d                              0x0800075b   Thumb Code    38  f2d.o(.text)
    __aeabi_d2f                              0x08000781   Thumb Code    56  d2f.o(.text)
    __aeabi_cfcmpeq                          0x080007b9   Thumb Code     0  cfcmple.o(.text)
    __aeabi_cfcmple                          0x080007b9   Thumb Code    20  cfcmple.o(.text)
    __aeabi_cfrcmple                         0x080007cd   Thumb Code    20  cfrcmple.o(.text)
    __aeabi_uidiv                            0x080007e1   Thumb Code     0  uidiv.o(.text)
    __aeabi_uidivmod                         0x080007e1   Thumb Code    44  uidiv.o(.text)
    __aeabi_uldivmod                         0x0800080d   Thumb Code    98  uldiv.o(.text)
    __aeabi_llsl                             0x0800086f   Thumb Code    30  llshl.o(.text)
    _ll_shift_l                              0x0800086f   Thumb Code     0  llshl.o(.text)
    __aeabi_llsr                             0x0800088d   Thumb Code    32  llushr.o(.text)
    _ll_ushift_r                             0x0800088d   Thumb Code     0  llushr.o(.text)
    __aeabi_lasr                             0x080008ad   Thumb Code    36  llsshr.o(.text)
    _ll_sshift_r                             0x080008ad   Thumb Code     0  llsshr.o(.text)
    __I$use$fp                               0x080008d1   Thumb Code     0  iusefp.o(.text)
    _float_round                             0x080008d1   Thumb Code    18  fepilogue.o(.text)
    _float_epilogue                          0x080008e3   Thumb Code    92  fepilogue.o(.text)
    _double_round                            0x0800093f   Thumb Code    30  depilogue.o(.text)
    _double_epilogue                         0x0800095d   Thumb Code   156  depilogue.o(.text)
    __aeabi_d2ulz                            0x080009f9   Thumb Code    48  dfixul.o(.text)
    __aeabi_cdrcmple                         0x08000a29   Thumb Code    48  cdrcmple.o(.text)
    __scatterload                            0x08000a59   Thumb Code    28  init.o(.text)
    __scatterload_rt2                        0x08000a59   Thumb Code     0  init.o(.text)
    __decompress                             0x08000a7d   Thumb Code     0  __dczerorl2.o(.text)
    __decompress1                            0x08000a7d   Thumb Code    86  __dczerorl2.o(.text)
    ADC_Cmd                                  0x08000ad3   Thumb Code    22  stm32f10x_adc.o(i.ADC_Cmd)
    ADC_DeInit                               0x08000ae9   Thumb Code    78  stm32f10x_adc.o(i.ADC_DeInit)
    ADC_GetCalibrationStatus                 0x08000b45   Thumb Code    20  stm32f10x_adc.o(i.ADC_GetCalibrationStatus)
    ADC_GetConversionValue                   0x08000b59   Thumb Code     8  stm32f10x_adc.o(i.ADC_GetConversionValue)
    ADC_GetFlagStatus                        0x08000b61   Thumb Code    18  stm32f10x_adc.o(i.ADC_GetFlagStatus)
    ADC_GetResetCalibrationStatus            0x08000b73   Thumb Code    20  stm32f10x_adc.o(i.ADC_GetResetCalibrationStatus)
    ADC_Init                                 0x08000b89   Thumb Code    70  stm32f10x_adc.o(i.ADC_Init)
    ADC_RegularChannelConfig                 0x08000bd9   Thumb Code   184  stm32f10x_adc.o(i.ADC_RegularChannelConfig)
    ADC_ResetCalibration                     0x08000c91   Thumb Code    10  stm32f10x_adc.o(i.ADC_ResetCalibration)
    ADC_SoftwareStartConvCmd                 0x08000c9b   Thumb Code    22  stm32f10x_adc.o(i.ADC_SoftwareStartConvCmd)
    ADC_StartCalibration                     0x08000cb1   Thumb Code    10  stm32f10x_adc.o(i.ADC_StartCalibration)
    ADC_TempSensorVrefintCmd                 0x08000cbd   Thumb Code    30  stm32f10x_adc.o(i.ADC_TempSensorVrefintCmd)
    BusFault_Handler                         0x08000ce1   Thumb Code     4  stm32f10x_it.o(i.BusFault_Handler)
    CmdError                                 0x08000ce5   Thumb Code    48  sd.o(i.CmdError)
    CmdResp1Error                            0x08000d15   Thumb Code    90  sd.o(i.CmdResp1Error)
    CmdResp2Error                            0x08000d75   Thumb Code    80  sd.o(i.CmdResp2Error)
    CmdResp3Error                            0x08000dc9   Thumb Code    50  sd.o(i.CmdResp3Error)
    CmdResp6Error                            0x08000e01   Thumb Code   140  sd.o(i.CmdResp6Error)
    CmdResp7Error                            0x08000e91   Thumb Code    70  sd.o(i.CmdResp7Error)
    DMA_ClearFlag                            0x08000edd   Thumb Code    18  stm32f10x_dma.o(i.DMA_ClearFlag)
    DMA_Cmd                                  0x08000ef9   Thumb Code    24  stm32f10x_dma.o(i.DMA_Cmd)
    DMA_DeInit                               0x08000f11   Thumb Code   324  stm32f10x_dma.o(i.DMA_DeInit)
    DMA_GetFlagStatus                        0x0800105d   Thumb Code    36  stm32f10x_dma.o(i.DMA_GetFlagStatus)
    DMA_Init                                 0x08001089   Thumb Code    60  stm32f10x_dma.o(i.DMA_Init)
    DMA_SetCurrDataCounter                   0x080010c5   Thumb Code     4  stm32f10x_dma.o(i.DMA_SetCurrDataCounter)
    DebugMon_Handler                         0x080010c9   Thumb Code     2  stm32f10x_it.o(i.DebugMon_Handler)
    EXTI15_10_IRQHandler                     0x080010cd   Thumb Code    86  key.o(i.EXTI15_10_IRQHandler)
    EXTI_ClearITPendingBit                   0x08001129   Thumb Code     6  stm32f10x_exti.o(i.EXTI_ClearITPendingBit)
    EXTI_GetITStatus                         0x08001135   Thumb Code    34  stm32f10x_exti.o(i.EXTI_GetITStatus)
    EXTI_Init                                0x0800115d   Thumb Code   142  stm32f10x_exti.o(i.EXTI_Init)
    FindSCR                                  0x080011f1   Thumb Code   386  sd.o(i.FindSCR)
    GPIO_EXTILineConfig                      0x08001385   Thumb Code    60  stm32f10x_gpio.o(i.GPIO_EXTILineConfig)
    GPIO_Init                                0x080013c5   Thumb Code   278  stm32f10x_gpio.o(i.GPIO_Init)
    GPIO_PinRemapConfig                      0x080014dd   Thumb Code   138  stm32f10x_gpio.o(i.GPIO_PinRemapConfig)
    GPIO_ReadInputDataBit                    0x0800156d   Thumb Code    18  stm32f10x_gpio.o(i.GPIO_ReadInputDataBit)
    GPIO_ResetBits                           0x0800157f   Thumb Code     4  stm32f10x_gpio.o(i.GPIO_ResetBits)
    GPIO_SetBits                             0x08001583   Thumb Code     4  stm32f10x_gpio.o(i.GPIO_SetBits)
    Get_HzMat                                0x08001589   Thumb Code   220  text.o(i.Get_HzMat)
    Get_Temprate                             0x08001669   Thumb Code   106  adc.o(i.Get_Temprate)
    HardFault_Handler                        0x080016f1   Thumb Code     4  stm32f10x_it.o(i.HardFault_Handler)
    IIC_ReceiveByte                          0x080016f5   Thumb Code    76  power.o(i.IIC_ReceiveByte)
    IIC_SendByte                             0x08001745   Thumb Code    78  power.o(i.IIC_SendByte)
    IIC_SendNoAck                            0x08001799   Thumb Code    38  power.o(i.IIC_SendNoAck)
    IIC_Start                                0x080017c5   Thumb Code    58  power.o(i.IIC_Start)
    IIC_Stop                                 0x08001805   Thumb Code    48  power.o(i.IIC_Stop)
    IIC_WaitAck                              0x08001839   Thumb Code    76  power.o(i.IIC_WaitAck)
    INTX_DISABLE                             0x08001889   Thumb Code     4  sys.o(i.INTX_DISABLE)
    INTX_ENABLE                              0x0800188d   Thumb Code     4  sys.o(i.INTX_ENABLE)
    IP5328P_BatCurrent                       0x08001891   Thumb Code   106  power.o(i.IP5328P_BatCurrent)
    IP5328P_BatVoltage                       0x0800190d   Thumb Code   112  power.o(i.IP5328P_BatVoltage)
    IP5328P_Read                             0x08001991   Thumb Code    60  power.o(i.IP5328P_Read)
    IsCardProgramming                        0x080019d9   Thumb Code   142  sd.o(i.IsCardProgramming)
    Key_IO_Init                              0x08001a75   Thumb Code   190  key.o(i.Key_IO_Init)
    LCDDebug                                 0x08001b39   Thumb Code   102  tft.o(i.LCDDebug)
    LCD_Address_Set                          0x08001b9f   Thumb Code    58  tft.o(i.LCD_Address_Set)
    LCD_Color_Fill                           0x08001bd9   Thumb Code   230  tft.o(i.LCD_Color_Fill)
    LCD_DrawLine                             0x08001cc9   Thumb Code   172  tft.o(i.LCD_DrawLine)
    LCD_DrawPoint                            0x08001d75   Thumb Code    28  tft.o(i.LCD_DrawPoint)
    LCD_DrawRectangle                        0x08001d91   Thumb Code    74  tft.o(i.LCD_DrawRectangle)
    LCD_Fill                                 0x08001ddd   Thumb Code   228  tft.o(i.LCD_Fill)
    LCD_Init                                 0x08001ec9   Thumb Code   428  tft.o(i.LCD_Init)
    LCD_ShowChar                             0x08002079   Thumb Code   328  tft.o(i.LCD_ShowChar)
    LCD_ShowString                           0x080021d1   Thumb Code   100  tft.o(i.LCD_ShowString)
    Load_Animation                           0x080022a1   Thumb Code   128  interface.o(i.Load_Animation)
    MCU_Temperature_ADC_Init                 0x0800232d   Thumb Code   118  adc.o(i.MCU_Temperature_ADC_Init)
    MemManage_Handler                        0x08002431   Thumb Code     4  stm32f10x_it.o(i.MemManage_Handler)
    NMI_Handler                              0x08002435   Thumb Code     2  stm32f10x_it.o(i.NMI_Handler)
    NVIC_Init                                0x08002439   Thumb Code   100  misc.o(i.NVIC_Init)
    NVIC_PriorityGroupConfig                 0x080024a9   Thumb Code    10  misc.o(i.NVIC_PriorityGroupConfig)
    PendSV_Handler                           0x080024bd   Thumb Code     2  stm32f10x_it.o(i.PendSV_Handler)
    Power_Get_Init                           0x080024c1   Thumb Code    48  power.o(i.Power_Get_Init)
    RCC_ADCCLKConfig                         0x080024f5   Thumb Code    18  stm32f10x_rcc.o(i.RCC_ADCCLKConfig)
    RCC_AHBPeriphClockCmd                    0x0800250d   Thumb Code    26  stm32f10x_rcc.o(i.RCC_AHBPeriphClockCmd)
    RCC_APB1PeriphClockCmd                   0x0800252d   Thumb Code    26  stm32f10x_rcc.o(i.RCC_APB1PeriphClockCmd)
    RCC_APB2PeriphClockCmd                   0x0800254d   Thumb Code    26  stm32f10x_rcc.o(i.RCC_APB2PeriphClockCmd)
    RCC_APB2PeriphResetCmd                   0x0800256d   Thumb Code    26  stm32f10x_rcc.o(i.RCC_APB2PeriphResetCmd)
    RCC_GetClocksFreq                        0x0800258d   Thumb Code   192  stm32f10x_rcc.o(i.RCC_GetClocksFreq)
    RGB_IO_Init                              0x08002661   Thumb Code    46  led.o(i.RGB_IO_Init)
    SDEnWideBus                              0x080026d5   Thumb Code   158  sd.o(i.SDEnWideBus)
    SDIO_ClearFlag                           0x08002781   Thumb Code     6  stm32f10x_sdio.o(i.SDIO_ClearFlag)
    SDIO_ClockCmd                            0x0800278d   Thumb Code     6  stm32f10x_sdio.o(i.SDIO_ClockCmd)
    SDIO_Clock_Set                           0x08002799   Thumb Code    16  sd.o(i.SDIO_Clock_Set)
    SDIO_DMACmd                              0x080027ad   Thumb Code     6  stm32f10x_sdio.o(i.SDIO_DMACmd)
    SDIO_DataConfig                          0x080027b9   Thumb Code    42  stm32f10x_sdio.o(i.SDIO_DataConfig)
    SDIO_DeInit                              0x080027e9   Thumb Code    28  stm32f10x_sdio.o(i.SDIO_DeInit)
    SDIO_GetFlagStatus                       0x0800280d   Thumb Code    20  stm32f10x_sdio.o(i.SDIO_GetFlagStatus)
    SDIO_GetPowerState                       0x08002825   Thumb Code    10  stm32f10x_sdio.o(i.SDIO_GetPowerState)
    SDIO_IRQHandler                          0x08002835   Thumb Code     8  sd.o(i.SDIO_IRQHandler)
    SDIO_Init                                0x0800283d   Thumb Code    42  stm32f10x_sdio.o(i.SDIO_Init)
    SDIO_ReadData                            0x0800286d   Thumb Code     6  stm32f10x_sdio.o(i.SDIO_ReadData)
    SDIO_SendCommand                         0x08002879   Thumb Code    38  stm32f10x_sdio.o(i.SDIO_SendCommand)
    SDIO_SetPowerState                       0x080028a5   Thumb Code    22  stm32f10x_sdio.o(i.SDIO_SetPowerState)
    SDIO_WriteData                           0x080028c1   Thumb Code     6  stm32f10x_sdio.o(i.SDIO_WriteData)
    SD_Casd_InterFace                        0x080028cd   Thumb Code   310  interface.o(i.SD_Casd_InterFace)
    SD_DMA_Config                            0x08002a25   Thumb Code    94  sd.o(i.SD_DMA_Config)
    SD_EnableWideBusOperation                0x08002a8d   Thumb Code    94  sd.o(i.SD_EnableWideBusOperation)
    SD_GetCardInfo                           0x08002af5   Thumb Code   768  sd.o(i.SD_GetCardInfo)
    SD_IFace_information                     0x08002e05   Thumb Code   278  sd_iface.o(i.SD_IFace_information)
    SD_Init                                  0x08002fb1   Thumb Code   212  sd.o(i.SD_Init)
    SD_InitializeCards                       0x08003095   Thumb Code   316  sd.o(i.SD_InitializeCards)
    SD_Picture_IFace                         0x080031e9   Thumb Code   862  sd_iface.o(i.SD_Picture_IFace)
    SD_PowerON                               0x080035fd   Thumb Code   450  sd.o(i.SD_PowerON)
    SD_ProcessIRQSrc                         0x080037d9   Thumb Code   296  sd.o(i.SD_ProcessIRQSrc)
    SD_ReadBlock                             0x08003915   Thumb Code   558  sd.o(i.SD_ReadBlock)
    SD_ReadDisk                              0x08003b6d   Thumb Code   148  sd.o(i.SD_ReadDisk)
    SD_ReadMultiBlocks                       0x08003c05   Thumb Code   698  sd.o(i.SD_ReadMultiBlocks)
    SD_SelectDeselect                        0x08003eed   Thumb Code    42  sd.o(i.SD_SelectDeselect)
    SD_SetDeviceMode                         0x08003f1d   Thumb Code    20  sd.o(i.SD_SetDeviceMode)
    SD_TXET_IFace                            0x08003f35   Thumb Code   162  sd_iface.o(i.SD_TXET_IFace)
    SD_WriteBlock                            0x08004005   Thumb Code   844  sd.o(i.SD_WriteBlock)
    SD_WriteDisk                             0x08004379   Thumb Code   148  sd.o(i.SD_WriteDisk)
    SD_WriteMultiBlocks                      0x08004411   Thumb Code   920  sd.o(i.SD_WriteMultiBlocks)
    SPI1_ReadWriteByte                       0x080047d1   Thumb Code    78  w25q64.o(i.SPI1_ReadWriteByte)
    SPI1_SetSpeed                            0x08004825   Thumb Code    36  w25q64.o(i.SPI1_SetSpeed)
    SPI_Cmd                                  0x0800484d   Thumb Code    24  stm32f10x_spi.o(i.SPI_Cmd)
    SPI_I2S_DMACmd                           0x08004865   Thumb Code    18  stm32f10x_spi.o(i.SPI_I2S_DMACmd)
    SPI_I2S_GetFlagStatus                    0x08004877   Thumb Code    18  stm32f10x_spi.o(i.SPI_I2S_GetFlagStatus)
    SPI_I2S_ReceiveData                      0x08004889   Thumb Code     6  stm32f10x_spi.o(i.SPI_I2S_ReceiveData)
    SPI_I2S_SendData                         0x0800488f   Thumb Code     4  stm32f10x_spi.o(i.SPI_I2S_SendData)
    SPI_Init                                 0x08004893   Thumb Code    60  stm32f10x_spi.o(i.SPI_Init)
    SVC_Handler                              0x080048cf   Thumb Code     2  stm32f10x_it.o(i.SVC_Handler)
    Show_Font                                0x080049b9   Thumb Code   188  text.o(i.Show_Font)
    Show_Menu_All                            0x08004a75   Thumb Code    64  interface.o(i.Show_Menu_All)
    Show_Menu_One                            0x08004ab5   Thumb Code    64  interface.o(i.Show_Menu_One)
    Show_Str                                 0x08004af5   Thumb Code   202  text.o(i.Show_Str)
    SysTick_CLKSourceConfig                  0x08004bbf   Thumb Code    40  misc.o(i.SysTick_CLKSourceConfig)
    SysTick_Handler                          0x08004be7   Thumb Code     2  stm32f10x_it.o(i.SysTick_Handler)
    SystemInit                               0x08004be9   Thumb Code    78  system_stm32f10x.o(i.SystemInit)
    TIM7_IRQHandler                          0x08004d11   Thumb Code    40  usart.o(i.TIM7_IRQHandler)
    TIM7_Set                                 0x08004d41   Thumb Code    34  usart.o(i.TIM7_Set)
    TIM_ClearITPendingBit                    0x08004d69   Thumb Code     6  stm32f10x_tim.o(i.TIM_ClearITPendingBit)
    TIM_Cmd                                  0x08004d6f   Thumb Code    24  stm32f10x_tim.o(i.TIM_Cmd)
    TIM_GetITStatus                          0x08004d87   Thumb Code    34  stm32f10x_tim.o(i.TIM_GetITStatus)
    TIM_SetCounter                           0x08004da9   Thumb Code     4  stm32f10x_tim.o(i.TIM_SetCounter)
    UART4_IRQHandler                         0x08004e11   Thumb Code    84  usart.o(i.UART4_IRQHandler)
    USART1_IRQHandler                        0x08004e75   Thumb Code   122  usart.o(i.USART1_IRQHandler)
    USART_Cmd                                0x08004efd   Thumb Code    24  stm32f10x_usart.o(i.USART_Cmd)
    USART_GetITStatus                        0x08004f15   Thumb Code    84  stm32f10x_usart.o(i.USART_GetITStatus)
    USART_ITConfig                           0x08004f69   Thumb Code    74  stm32f10x_usart.o(i.USART_ITConfig)
    USART_Init                               0x08004fb5   Thumb Code   210  stm32f10x_usart.o(i.USART_Init)
    USART_ReceiveData                        0x0800508d   Thumb Code    10  stm32f10x_usart.o(i.USART_ReceiveData)
    UsageFault_Handler                       0x08005097   Thumb Code     4  stm32f10x_it.o(i.UsageFault_Handler)
    User_Main_InterFace                      0x0800509d   Thumb Code   398  interface.o(i.User_Main_InterFace)
    User_Modules_InterFace                   0x08005269   Thumb Code   252  interface.o(i.User_Modules_InterFace)
    W25QXX_Erase_Sector                      0x08005381   Thumb Code    70  w25q64.o(i.W25QXX_Erase_Sector)
    W25QXX_Read                              0x080053d9   Thumb Code    74  w25q64.o(i.W25QXX_Read)
    W25QXX_ReadID                            0x08005429   Thumb Code    64  w25q64.o(i.W25QXX_ReadID)
    W25QXX_ReadSR                            0x08005471   Thumb Code    36  w25q64.o(i.W25QXX_ReadSR)
    W25QXX_WAKEUP                            0x0800549d   Thumb Code    30  w25q64.o(i.W25QXX_WAKEUP)
    W25QXX_Wait_Busy                         0x080054c5   Thumb Code    18  w25q64.o(i.W25QXX_Wait_Busy)
    W25QXX_Write                             0x080054d9   Thumb Code   180  w25q64.o(i.W25QXX_Write)
    W25QXX_Write_Enable                      0x08005591   Thumb Code    24  w25q64.o(i.W25QXX_Write_Enable)
    W25QXX_Write_NoCheck                     0x080055b1   Thumb Code    70  w25q64.o(i.W25QXX_Write_NoCheck)
    W25QXX_Write_Page                        0x080055f9   Thumb Code    80  w25q64.o(i.W25QXX_Write_Page)
    W25Qxx_SPIAndIO_Init                     0x0800564d   Thumb Code   236  w25q64.o(i.W25Qxx_SPIAndIO_Init)
    __0printf                                0x08005751   Thumb Code    22  printfa.o(i.__0printf)
    __1printf                                0x08005751   Thumb Code     0  printfa.o(i.__0printf)
    __2printf                                0x08005751   Thumb Code     0  printfa.o(i.__0printf)
    __c89printf                              0x08005751   Thumb Code     0  printfa.o(i.__0printf)
    printf                                   0x08005751   Thumb Code     0  printfa.o(i.__0printf)
    __0sprintf                               0x08005771   Thumb Code    34  printfa.o(i.__0sprintf)
    __1sprintf                               0x08005771   Thumb Code     0  printfa.o(i.__0sprintf)
    __2sprintf                               0x08005771   Thumb Code     0  printfa.o(i.__0sprintf)
    __c89sprintf                             0x08005771   Thumb Code     0  printfa.o(i.__0sprintf)
    sprintf                                  0x08005771   Thumb Code     0  printfa.o(i.__0sprintf)
    __scatterload_copy                       0x08005799   Thumb Code    14  handlers.o(i.__scatterload_copy)
    __scatterload_null                       0x080057a7   Thumb Code     2  handlers.o(i.__scatterload_null)
    __scatterload_zeroinit                   0x080057a9   Thumb Code    14  handlers.o(i.__scatterload_zeroinit)
    ai_draw_init                             0x0800604d   Thumb Code   264  piclib.o(i.ai_draw_init)
    ai_load_picfile                          0x08006159   Thumb Code   206  piclib.o(i.ai_load_picfile)
    char_upper                               0x08006591   Thumb Code    26  exfuns.o(i.char_upper)
    clust2sect                               0x08006683   Thumb Code    26  ff.o(i.clust2sect)
    convert_from_bytes_to_power_of_two       0x0800672d   Thumb Code    18  sd.o(i.convert_from_bytes_to_power_of_two)
    delay_init                               0x08006c2d   Thumb Code    50  delay.o(i.delay_init)
    delay_ms                                 0x08006c71   Thumb Code    72  delay.o(i.delay_ms)
    delay_us                                 0x08006cbd   Thumb Code    72  delay.o(i.delay_us)
    dir_sdi                                  0x0800714d   Thumb Code   158  ff.o(i.dir_sdi)
    disk_initialize                          0x080071ed   Thumb Code    62  diskio.o(i.disk_initialize)
    disk_ioctl                               0x08007231   Thumb Code   170  diskio.o(i.disk_ioctl)
    disk_read                                0x080072e5   Thumb Code   122  diskio.o(i.disk_read)
    disk_status                              0x0800735f   Thumb Code     6  diskio.o(i.disk_status)
    disk_write                               0x08007365   Thumb Code   122  diskio.o(i.disk_write)
    exf_getfree                              0x080073df   Thumb Code    74  exfuns.o(i.exf_getfree)
    exfuns_init                              0x08007429   Thumb Code   114  exfuns.o(i.exfuns_init)
    f_close                                  0x080074ad   Thumb Code    32  ff.o(i.f_close)
    f_getfree                                0x080074cd   Thumb Code   258  ff.o(i.f_getfree)
    f_lseek                                  0x080075cf   Thumb Code   684  ff.o(i.f_lseek)
    f_mount                                  0x0800787d   Thumb Code    86  ff.o(i.f_mount)
    f_open                                   0x080078d9   Thumb Code   384  ff.o(i.f_open)
    f_opendir                                0x08007a59   Thumb Code   136  ff.o(i.f_opendir)
    f_read                                   0x08007ae1   Thumb Code   432  ff.o(i.f_read)
    f_readdir                                0x08007c91   Thumb Code   114  ff.o(i.f_readdir)
    f_sync                                   0x08007d03   Thumb Code   176  ff.o(i.f_sync)
    f_typetell                               0x08007db5   Thumb Code   188  exfuns.o(i.f_typetell)
    ff_convert                               0x08007e75   Thumb Code   116  cc936.o(i.ff_convert)
    ff_memalloc                              0x08007ef1   Thumb Code    14  diskio.o(i.ff_memalloc)
    ff_memfree                               0x08007eff   Thumb Code    14  diskio.o(i.ff_memfree)
    ff_wtoupper                              0x08007f0d   Thumb Code    46  cc936.o(i.ff_wtoupper)
    font_init                                0x0800841d   Thumb Code    64  fontupd.o(i.font_init)
    fputc                                    0x08008461   Thumb Code    24  usart.o(i.fputc)
    fupd_prog                                0x0800847d   Thumb Code   110  fontupd.o(i.fupd_prog)
    get_fat                                  0x080085c5   Thumb Code   242  ff.o(i.get_fat)
    get_fattime                              0x080086b7   Thumb Code     4  diskio.o(i.get_fattime)
    gif_check_head                           0x08008815   Thumb Code    88  gif.o(i.gif_check_head)
    gif_clear2bkcolor                        0x0800886d   Thumb Code   496  gif.o(i.gif_clear2bkcolor)
    gif_decode                               0x08008a61   Thumb Code   296  gif.o(i.gif_decode)
    gif_dispimage                            0x08008b8d   Thumb Code   538  gif.o(i.gif_dispimage)
    gif_drawimage                            0x08008db5   Thumb Code   340  gif.o(i.gif_drawimage)
    gif_getdatablock                         0x08008f09   Thumb Code    96  gif.o(i.gif_getdatablock)
    gif_getinfo                              0x08008f69   Thumb Code    70  gif.o(i.gif_getinfo)
    gif_getnextbyte                          0x08008faf   Thumb Code   866  gif.o(i.gif_getnextbyte)
    gif_getnextcode                          0x08009311   Thumb Code   456  gif.o(i.gif_getnextcode)
    gif_getrgb565                            0x080094dd   Thumb Code    28  gif.o(i.gif_getrgb565)
    gif_initlzw                              0x080094f9   Thumb Code   152  gif.o(i.gif_initlzw)
    gif_readcolortbl                         0x08009591   Thumb Code    64  gif.o(i.gif_readcolortbl)
    gif_readextension                        0x080095d1   Thumb Code   160  gif.o(i.gif_readextension)
    gif_recovergctbl                         0x08009671   Thumb Code    38  gif.o(i.gif_recovergctbl)
    gif_savegctbl                            0x08009697   Thumb Code    38  gif.o(i.gif_savegctbl)
    is_element_ok                            0x0800977d   Thumb Code    36  piclib.o(i.is_element_ok)
    jd_decomp                                0x080097a5   Thumb Code   162  tjpgd.o(i.jd_decomp)
    jd_prepare                               0x08009847   Thumb Code   924  tjpgd.o(i.jd_prepare)
    jpeg_freeall                             0x08009be5   Thumb Code    28  tjpgd.o(i.jpeg_freeall)
    jpeg_in_func                             0x08009c0d   Thumb Code    48  tjpgd.o(i.jpeg_in_func)
    jpeg_mallocall                           0x08009c3d   Thumb Code    70  tjpgd.o(i.jpeg_mallocall)
    jpeg_out_func_fill                       0x08009c91   Thumb Code    74  tjpgd.o(i.jpeg_out_func_fill)
    jpeg_out_func_point                      0x08009ce5   Thumb Code   182  tjpgd.o(i.jpeg_out_func_point)
    jpg_decode                               0x08009da5   Thumb Code   232  tjpgd.o(i.jpg_decode)
    main                                     0x08009ec9   Thumb Code   554  main.o(i.main)
    my_mem_free                              0x0800a7c1   Thumb Code    96  malloc.o(i.my_mem_free)
    my_mem_init                              0x0800a82d   Thumb Code    54  malloc.o(i.my_mem_init)
    my_mem_malloc                            0x0800a871   Thumb Code   156  malloc.o(i.my_mem_malloc)
    my_mem_perused                           0x0800a919   Thumb Code    54  malloc.o(i.my_mem_perused)
    myfree                                   0x0800a959   Thumb Code    30  malloc.o(i.myfree)
    mymalloc                                 0x0800a97d   Thumb Code    34  malloc.o(i.mymalloc)
    mymemset                                 0x0800a9a5   Thumb Code    20  malloc.o(i.mymemset)
    pic_get_tnum                             0x0800a9b9   Thumb Code   108  user_fat.o(i.pic_get_tnum)
    pic_memalloc                             0x0800aa25   Thumb Code    14  piclib.o(i.pic_memalloc)
    pic_memfree                              0x0800aa33   Thumb Code    14  piclib.o(i.pic_memfree)
    piclib_draw_hline                        0x0800aab5   Thumb Code    44  piclib.o(i.piclib_draw_hline)
    piclib_fill_color                        0x0800aae1   Thumb Code    44  piclib.o(i.piclib_fill_color)
    piclib_init                              0x0800ab0d   Thumb Code    48  piclib.o(i.piclib_init)
    put_fat                                  0x0800ab55   Thumb Code   322  ff.o(i.put_fat)
    stdbmp_decode                            0x0800ad85   Thumb Code   718  bmp.o(i.stdbmp_decode)
    uart_init                                0x0800b1a5   Thumb Code   152  usart.o(i.uart_init)
    updata_fontx                             0x0800b245   Thumb Code   346  fontupd.o(i.updata_fontx)
    update_font                              0x0800b3a9   Thumb Code   736  fontupd.o(i.update_font)
    ascii_1206                               0x0800b742   Data        1140  tft.o(.constdata)
    ascii_1608                               0x0800bbb6   Data        1520  tft.o(.constdata)
    ascii_2412                               0x0800c1a6   Data        4560  tft.o(.constdata)
    ascii_3216                               0x0800d376   Data        6080  tft.o(.constdata)
    tfont12                                  0x0800eb36   Data           0  tft.o(.constdata)
    tfont16                                  0x0800eb37   Data           0  tft.o(.constdata)
    tfont24                                  0x0800eb38   Data           0  tft.o(.constdata)
    tfont32                                  0x0800eb39   Data           0  tft.o(.constdata)
    memtblsize                               0x0800eb3c   Data           8  malloc.o(.constdata)
    memblksize                               0x0800eb44   Data           8  malloc.o(.constdata)
    memsize                                  0x0800eb4c   Data           8  malloc.o(.constdata)
    FILE_TYPE_TBL                            0x08039858   Data         312  exfuns.o(.constdata)
    GBK24_PATH                               0x08039990   Data           4  fontupd.o(.constdata)
    GBK16_PATH                               0x08039994   Data           4  fontupd.o(.constdata)
    GBK12_PATH                               0x08039998   Data           4  fontupd.o(.constdata)
    UNIGBK_PATH                              0x0803999c   Data           4  fontupd.o(.constdata)
    _aMaskTbl                                0x080399a0   Data          32  gif.o(.constdata)
    _aInterlaceOffset                        0x080399c0   Data           4  gif.o(.constdata)
    _aInterlaceYPos                          0x080399c4   Data           4  gif.o(.constdata)
    Region$$Table$$Base                      0x08039fc0   Number         0  anon$$obj.o(Region$$Table)
    Region$$Table$$Limit                     0x08039fe0   Number         0  anon$$obj.o(Region$$Table)
    sd_size                                  0x20000000   Data           4  main.o(.data)
    res                                      0x20000004   Data           1  main.o(.data)
    TXET_key                                 0x20000005   Data           1  main.o(.data)
    Timeout_Flag                             0x20000006   Data           1  main.o(.data)
    SystemCoreClock                          0x20000008   Data           4  system_stm32f10x.o(.data)
    AHBPrescTable                            0x2000000c   Data          16  system_stm32f10x.o(.data)
    KEY_Flag                                 0x2000001c   Data           1  key.o(.data)
    DMA1_MEM_LEN                             0x2000001e   Data           2  tft.o(.data)
    TransferError                            0x2000002a   Data           1  sd.o(.data)
    TransferEnd                              0x2000002b   Data           1  sd.o(.data)
    tempbuff                                 0x2000002c   Data           4  sd.o(.data)
    mallco_dev                               0x20000030   Data          28  malloc.o(.data)
    InterFace_Flag                           0x2000004c   Data           1  interface.o(.data)
    InterFace_Two_Flag                       0x2000004d   Data           1  interface.o(.data)
    Menu_Main_Num                            0x2000004e   Data           1  interface.o(.data)
    Main_directory                           0x20000050   Data          36  interface.o(.data)
    Menu_SD_Num                              0x20000074   Data           1  interface.o(.data)
    SD_Casd_directory                        0x20000078   Data          60  interface.o(.data)
    Modules_directory                        0x200000b4   Data          84  interface.o(.data)
    __stdout                                 0x20000118   Data           4  usart.o(.data)
    USART_RX_STA                             0x2000011c   Data           2  usart.o(.data)
    UART4_RX_STA                             0x2000011e   Data           2  usart.o(.data)
    FLASH_SECTOR_COUNT                       0x20000120   Data           2  diskio.o(.data)
    fs                                       0x20000130   Data           8  exfuns.o(.data)
    file                                     0x20000138   Data           4  exfuns.o(.data)
    ftemp                                    0x2000013c   Data           4  exfuns.o(.data)
    br                                       0x20000140   Data           4  exfuns.o(.data)
    bw                                       0x20000144   Data           4  exfuns.o(.data)
    fatbuf                                   0x20000148   Data           4  exfuns.o(.data)
    gifdecoding                              0x2000014c   Data           1  gif.o(.data)
    f_jpeg                                   0x20000150   Data           4  tjpgd.o(.data)
    jpeg_dev                                 0x20000154   Data           4  tjpgd.o(.data)
    jpg_buffer                               0x20000158   Data           4  tjpgd.o(.data)
    LCD_Debug_buf                            0x20000170   Data          40  main.o(.bss)
    DMA_InitStructure                        0x20000198   Data          44  tft.o(.bss)
    W25QXX_BUFFER                            0x200001c4   Data        4096  w25q64.o(.bss)
    SDIO_InitStructure                       0x200011c8   Data          24  sd.o(.bss)
    SDIO_CmdInitStructure                    0x200011e0   Data          20  sd.o(.bss)
    SDIO_DataInitStructure                   0x200011f4   Data          24  sd.o(.bss)
    SDCardInfo                               0x20001230   Data          88  sd.o(.bss)
    SDIO_DATA_BUFFER                         0x20001288   Data         512  sd.o(.bss)
    mem1base                                 0x200014a0   Data        8192  malloc.o(.bss)
    mem1mapbase                              0x200034a0   Data         512  malloc.o(.bss)
    Debug_buf                                0x200036a0   Data          40  interface.o(.bss)
    USART_RX_BUF                             0x200036c8   Data         200  usart.o(.bss)
    UART4_TX_BUF                             0x20003790   Data        1024  usart.o(.bss)
    UART4_RX_BUF                             0x20003b90   Data        1024  usart.o(.bss)
    ftinfo                                   0x20003f90   Data          33  fontupd.o(.bss)
    picinfo                                  0x20003fb1   Data          40  piclib.o(.bss)
    pic_phy                                  0x20003fd9   Data          20  piclib.o(.bss)
    __initial_sp                             0x200043f0   Data           0  startup_stm32f10x_hd.o(STACK)
    mem2base                                 0x68000000   Data          32  malloc.o(.ARM.__AT_0x68000000)
    mem2mapbase                              0x68000020   Data           2  malloc.o(.ARM.__AT_0x68000020)



==============================================================================

Memory Map of the image

  Image Entry point : 0x08000131

  Load Region LR_IROM1 (Base: 0x08000000, Size: 0x0003a150, Max: 0x00040000, ABSOLUTE, COMPRESSED[0x0003a078])

    Execution Region ER_IROM1 (Exec base: 0x08000000, Load base: 0x08000000, Size: 0x00039fe0, Max: 0x00040000, ABSOLUTE)

    Exec Addr    Load Addr    Size         Type   Attr      Idx    E Section Name        Object

    0x08000000   0x08000000   0x00000130   Data   RO         3043    RESET               startup_stm32f10x_hd.o
    0x08000130   0x08000130   0x00000000   Code   RO         5782  * .ARM.Collect$$$$00000000  mc_w.l(entry.o)
    0x08000130   0x08000130   0x00000004   Code   RO         6088    .ARM.Collect$$$$00000001  mc_w.l(entry2.o)
    0x08000134   0x08000134   0x00000004   Code   RO         6091    .ARM.Collect$$$$00000004  mc_w.l(entry5.o)
    0x08000138   0x08000138   0x00000000   Code   RO         6093    .ARM.Collect$$$$00000008  mc_w.l(entry7b.o)
    0x08000138   0x08000138   0x00000000   Code   RO         6095    .ARM.Collect$$$$0000000A  mc_w.l(entry8b.o)
    0x08000138   0x08000138   0x00000008   Code   RO         6096    .ARM.Collect$$$$0000000B  mc_w.l(entry9a.o)
    0x08000140   0x08000140   0x00000004   Code   RO         6103    .ARM.Collect$$$$0000000E  mc_w.l(entry12b.o)
    0x08000144   0x08000144   0x00000000   Code   RO         6098    .ARM.Collect$$$$0000000F  mc_w.l(entry10a.o)
    0x08000144   0x08000144   0x00000000   Code   RO         6100    .ARM.Collect$$$$00000011  mc_w.l(entry11a.o)
    0x08000144   0x08000144   0x00000004   Code   RO         6089    .ARM.Collect$$$$00002712  mc_w.l(entry2.o)
    0x08000148   0x08000148   0x00000024   Code   RO         3044    .text               startup_stm32f10x_hd.o
    0x0800016c   0x0800016c   0x00000062   Code   RO         5785    .text               mc_w.l(ldiv.o)
    0x080001ce   0x080001ce   0x00000024   Code   RO         5787    .text               mc_w.l(memcpya.o)
    0x080001f2   0x080001f2   0x00000018   Code   RO         5789    .text               mc_w.l(strcat.o)
    0x0800020a   0x0800020a   0x0000001c   Code   RO         5793    .text               mc_w.l(strcmp.o)
    0x08000226   0x08000226   0x00000012   Code   RO         5795    .text               mc_w.l(strcpy.o)
    0x08000238   0x08000238   0x000000b0   Code   RO         6060    .text               mf_w.l(fadd.o)
    0x080002e8   0x080002e8   0x00000064   Code   RO         6062    .text               mf_w.l(fmul.o)
    0x0800034c   0x0800034c   0x0000007c   Code   RO         6064    .text               mf_w.l(fdiv.o)
    0x080003c8   0x080003c8   0x0000014e   Code   RO         6066    .text               mf_w.l(dadd.o)
    0x08000516   0x08000516   0x000000e4   Code   RO         6068    .text               mf_w.l(dmul.o)
    0x080005fa   0x080005fa   0x000000de   Code   RO         6070    .text               mf_w.l(ddiv.o)
    0x080006d8   0x080006d8   0x00000012   Code   RO         6072    .text               mf_w.l(fflti.o)
    0x080006ea   0x080006ea   0x0000000a   Code   RO         6074    .text               mf_w.l(ffltui.o)
    0x080006f4   0x080006f4   0x00000028   Code   RO         6076    .text               mf_w.l(ffixui.o)
    0x0800071c   0x0800071c   0x0000003e   Code   RO         6078    .text               mf_w.l(dfixi.o)
    0x0800075a   0x0800075a   0x00000026   Code   RO         6080    .text               mf_w.l(f2d.o)
    0x08000780   0x08000780   0x00000038   Code   RO         6082    .text               mf_w.l(d2f.o)
    0x080007b8   0x080007b8   0x00000014   Code   RO         6084    .text               mf_w.l(cfcmple.o)
    0x080007cc   0x080007cc   0x00000014   Code   RO         6086    .text               mf_w.l(cfrcmple.o)
    0x080007e0   0x080007e0   0x0000002c   Code   RO         6104    .text               mc_w.l(uidiv.o)
    0x0800080c   0x0800080c   0x00000062   Code   RO         6106    .text               mc_w.l(uldiv.o)
    0x0800086e   0x0800086e   0x0000001e   Code   RO         6108    .text               mc_w.l(llshl.o)
    0x0800088c   0x0800088c   0x00000020   Code   RO         6110    .text               mc_w.l(llushr.o)
    0x080008ac   0x080008ac   0x00000024   Code   RO         6112    .text               mc_w.l(llsshr.o)
    0x080008d0   0x080008d0   0x00000000   Code   RO         6114    .text               mc_w.l(iusefp.o)
    0x080008d0   0x080008d0   0x0000006e   Code   RO         6115    .text               mf_w.l(fepilogue.o)
    0x0800093e   0x0800093e   0x000000ba   Code   RO         6117    .text               mf_w.l(depilogue.o)
    0x080009f8   0x080009f8   0x00000030   Code   RO         6119    .text               mf_w.l(dfixul.o)
    0x08000a28   0x08000a28   0x00000030   Code   RO         6121    .text               mf_w.l(cdrcmple.o)
    0x08000a58   0x08000a58   0x00000024   Code   RO         6123    .text               mc_w.l(init.o)
    0x08000a7c   0x08000a7c   0x00000056   Code   RO         6133    .text               mc_w.l(__dczerorl2.o)
    0x08000ad2   0x08000ad2   0x00000016   Code   RO         5566    i.ADC_Cmd           stm32f10x_adc.o
    0x08000ae8   0x08000ae8   0x0000005c   Code   RO         5568    i.ADC_DeInit        stm32f10x_adc.o
    0x08000b44   0x08000b44   0x00000014   Code   RO         5574    i.ADC_GetCalibrationStatus  stm32f10x_adc.o
    0x08000b58   0x08000b58   0x00000008   Code   RO         5575    i.ADC_GetConversionValue  stm32f10x_adc.o
    0x08000b60   0x08000b60   0x00000012   Code   RO         5577    i.ADC_GetFlagStatus  stm32f10x_adc.o
    0x08000b72   0x08000b72   0x00000014   Code   RO         5580    i.ADC_GetResetCalibrationStatus  stm32f10x_adc.o
    0x08000b86   0x08000b86   0x00000002   PAD
    0x08000b88   0x08000b88   0x00000050   Code   RO         5584    i.ADC_Init          stm32f10x_adc.o
    0x08000bd8   0x08000bd8   0x000000b8   Code   RO         5588    i.ADC_RegularChannelConfig  stm32f10x_adc.o
    0x08000c90   0x08000c90   0x0000000a   Code   RO         5589    i.ADC_ResetCalibration  stm32f10x_adc.o
    0x08000c9a   0x08000c9a   0x00000016   Code   RO         5591    i.ADC_SoftwareStartConvCmd  stm32f10x_adc.o
    0x08000cb0   0x08000cb0   0x0000000a   Code   RO         5593    i.ADC_StartCalibration  stm32f10x_adc.o
    0x08000cba   0x08000cba   0x00000002   PAD
    0x08000cbc   0x08000cbc   0x00000024   Code   RO         5595    i.ADC_TempSensorVrefintCmd  stm32f10x_adc.o
    0x08000ce0   0x08000ce0   0x00000004   Code   RO          207    i.BusFault_Handler  stm32f10x_it.o
    0x08000ce4   0x08000ce4   0x00000030   Code   RO          709    i.CmdError          sd.o
    0x08000d14   0x08000d14   0x00000060   Code   RO          710    i.CmdResp1Error     sd.o
    0x08000d74   0x08000d74   0x00000054   Code   RO          711    i.CmdResp2Error     sd.o
    0x08000dc8   0x08000dc8   0x00000038   Code   RO          712    i.CmdResp3Error     sd.o
    0x08000e00   0x08000e00   0x00000090   Code   RO          713    i.CmdResp6Error     sd.o
    0x08000e90   0x08000e90   0x0000004c   Code   RO          714    i.CmdResp7Error     sd.o
    0x08000edc   0x08000edc   0x0000001c   Code   RO         3812    i.DMA_ClearFlag     stm32f10x_dma.o
    0x08000ef8   0x08000ef8   0x00000018   Code   RO         3814    i.DMA_Cmd           stm32f10x_dma.o
    0x08000f10   0x08000f10   0x0000014c   Code   RO         3815    i.DMA_DeInit        stm32f10x_dma.o
    0x0800105c   0x0800105c   0x0000002c   Code   RO         3817    i.DMA_GetFlagStatus  stm32f10x_dma.o
    0x08001088   0x08001088   0x0000003c   Code   RO         3820    i.DMA_Init          stm32f10x_dma.o
    0x080010c4   0x080010c4   0x00000004   Code   RO         3821    i.DMA_SetCurrDataCounter  stm32f10x_dma.o
    0x080010c8   0x080010c8   0x00000002   Code   RO          208    i.DebugMon_Handler  stm32f10x_it.o
    0x080010ca   0x080010ca   0x00000002   PAD
    0x080010cc   0x080010cc   0x0000005c   Code   RO          304    i.EXTI15_10_IRQHandler  key.o
    0x08001128   0x08001128   0x0000000c   Code   RO         3885    i.EXTI_ClearITPendingBit  stm32f10x_exti.o
    0x08001134   0x08001134   0x00000028   Code   RO         3889    i.EXTI_GetITStatus  stm32f10x_exti.o
    0x0800115c   0x0800115c   0x00000094   Code   RO         3890    i.EXTI_Init         stm32f10x_exti.o
    0x080011f0   0x080011f0   0x00000194   Code   RO          715    i.FindSCR           sd.o
    0x08001384   0x08001384   0x00000040   Code   RO         3087    i.GPIO_EXTILineConfig  stm32f10x_gpio.o
    0x080013c4   0x080013c4   0x00000116   Code   RO         3090    i.GPIO_Init         stm32f10x_gpio.o
    0x080014da   0x080014da   0x00000002   PAD
    0x080014dc   0x080014dc   0x00000090   Code   RO         3092    i.GPIO_PinRemapConfig  stm32f10x_gpio.o
    0x0800156c   0x0800156c   0x00000012   Code   RO         3094    i.GPIO_ReadInputDataBit  stm32f10x_gpio.o
    0x0800157e   0x0800157e   0x00000004   Code   RO         3097    i.GPIO_ResetBits    stm32f10x_gpio.o
    0x08001582   0x08001582   0x00000004   Code   RO         3098    i.GPIO_SetBits      stm32f10x_gpio.o
    0x08001586   0x08001586   0x00000002   PAD
    0x08001588   0x08001588   0x000000e0   Code   RO         2637    i.Get_HzMat         text.o
    0x08001668   0x08001668   0x00000088   Code   RO         1144    i.Get_Temprate      adc.o
    0x080016f0   0x080016f0   0x00000004   Code   RO          209    i.HardFault_Handler  stm32f10x_it.o
    0x080016f4   0x080016f4   0x00000050   Code   RO         1176    i.IIC_ReceiveByte   power.o
    0x08001744   0x08001744   0x00000054   Code   RO         1178    i.IIC_SendByte      power.o
    0x08001798   0x08001798   0x0000002c   Code   RO         1179    i.IIC_SendNoAck     power.o
    0x080017c4   0x080017c4   0x00000040   Code   RO         1180    i.IIC_Start         power.o
    0x08001804   0x08001804   0x00000034   Code   RO         1181    i.IIC_Stop          power.o
    0x08001838   0x08001838   0x00000050   Code   RO         1182    i.IIC_WaitAck       power.o
    0x08001888   0x08001888   0x00000004   Code   RO         1408    i.INTX_DISABLE      sys.o
    0x0800188c   0x0800188c   0x00000004   Code   RO         1409    i.INTX_ENABLE       sys.o
    0x08001890   0x08001890   0x0000007c   Code   RO         1185    i.IP5328P_BatCurrent  power.o
    0x0800190c   0x0800190c   0x00000084   Code   RO         1187    i.IP5328P_BatVoltage  power.o
    0x08001990   0x08001990   0x0000003c   Code   RO         1196    i.IP5328P_Read      power.o
    0x080019cc   0x080019cc   0x0000000a   Code   RO         1205    i.IP5328_delay      power.o
    0x080019d6   0x080019d6   0x00000002   PAD
    0x080019d8   0x080019d8   0x0000009c   Code   RO          716    i.IsCardProgramming  sd.o
    0x08001a74   0x08001a74   0x000000c4   Code   RO          305    i.Key_IO_Init       key.o
    0x08001b38   0x08001b38   0x00000066   Code   RO          413    i.LCDDebug          tft.o
    0x08001b9e   0x08001b9e   0x0000003a   Code   RO          414    i.LCD_Address_Set   tft.o
    0x08001bd8   0x08001bd8   0x000000f0   Code   RO          415    i.LCD_Color_Fill    tft.o
    0x08001cc8   0x08001cc8   0x000000ac   Code   RO          416    i.LCD_DrawLine      tft.o
    0x08001d74   0x08001d74   0x0000001c   Code   RO          417    i.LCD_DrawPoint     tft.o
    0x08001d90   0x08001d90   0x0000004a   Code   RO          418    i.LCD_DrawRectangle  tft.o
    0x08001dda   0x08001dda   0x00000002   PAD
    0x08001ddc   0x08001ddc   0x000000ec   Code   RO          419    i.LCD_Fill          tft.o
    0x08001ec8   0x08001ec8   0x000001b0   Code   RO          420    i.LCD_Init          tft.o
    0x08002078   0x08002078   0x00000158   Code   RO          421    i.LCD_ShowChar      tft.o
    0x080021d0   0x080021d0   0x00000064   Code   RO          430    i.LCD_ShowString    tft.o
    0x08002234   0x08002234   0x00000012   Code   RO          431    i.LCD_WR_DATA       tft.o
    0x08002246   0x08002246   0x0000000c   Code   RO          432    i.LCD_WR_DATA8      tft.o
    0x08002252   0x08002252   0x00000002   PAD
    0x08002254   0x08002254   0x00000024   Code   RO          433    i.LCD_WR_REG        tft.o
    0x08002278   0x08002278   0x00000028   Code   RO          434    i.LCD_Writ_Bus      tft.o
    0x080022a0   0x080022a0   0x0000008c   Code   RO          979    i.Load_Animation    interface.o
    0x0800232c   0x0800232c   0x0000007c   Code   RO         1145    i.MCU_Temperature_ADC_Init  adc.o
    0x080023a8   0x080023a8   0x00000060   Code   RO          436    i.MYDMA_Config1     tft.o
    0x08002408   0x08002408   0x00000028   Code   RO          437    i.MYDMA_Enable      tft.o
    0x08002430   0x08002430   0x00000004   Code   RO          210    i.MemManage_Handler  stm32f10x_it.o
    0x08002434   0x08002434   0x00000002   Code   RO          211    i.NMI_Handler       stm32f10x_it.o
    0x08002436   0x08002436   0x00000002   PAD
    0x08002438   0x08002438   0x00000070   Code   RO         3048    i.NVIC_Init         misc.o
    0x080024a8   0x080024a8   0x00000014   Code   RO         3049    i.NVIC_PriorityGroupConfig  misc.o
    0x080024bc   0x080024bc   0x00000002   Code   RO          212    i.PendSV_Handler    stm32f10x_it.o
    0x080024be   0x080024be   0x00000002   PAD
    0x080024c0   0x080024c0   0x00000034   Code   RO         1206    i.Power_Get_Init    power.o
    0x080024f4   0x080024f4   0x00000018   Code   RO         3198    i.RCC_ADCCLKConfig  stm32f10x_rcc.o
    0x0800250c   0x0800250c   0x00000020   Code   RO         3199    i.RCC_AHBPeriphClockCmd  stm32f10x_rcc.o
    0x0800252c   0x0800252c   0x00000020   Code   RO         3200    i.RCC_APB1PeriphClockCmd  stm32f10x_rcc.o
    0x0800254c   0x0800254c   0x00000020   Code   RO         3202    i.RCC_APB2PeriphClockCmd  stm32f10x_rcc.o
    0x0800256c   0x0800256c   0x00000020   Code   RO         3203    i.RCC_APB2PeriphResetCmd  stm32f10x_rcc.o
    0x0800258c   0x0800258c   0x000000d4   Code   RO         3210    i.RCC_GetClocksFreq  stm32f10x_rcc.o
    0x08002660   0x08002660   0x00000034   Code   RO          396    i.RGB_IO_Init       led.o
    0x08002694   0x08002694   0x0000001c   Code   RO         1207    i.SDA_IN            power.o
    0x080026b0   0x080026b0   0x00000024   Code   RO         1208    i.SDA_OUT           power.o
    0x080026d4   0x080026d4   0x000000ac   Code   RO          717    i.SDEnWideBus       sd.o
    0x08002780   0x08002780   0x0000000c   Code   RO         4629    i.SDIO_ClearFlag    stm32f10x_sdio.o
    0x0800278c   0x0800278c   0x0000000c   Code   RO         4631    i.SDIO_ClockCmd     stm32f10x_sdio.o
    0x08002798   0x08002798   0x00000014   Code   RO          718    i.SDIO_Clock_Set    sd.o
    0x080027ac   0x080027ac   0x0000000c   Code   RO         4634    i.SDIO_DMACmd       stm32f10x_sdio.o
    0x080027b8   0x080027b8   0x00000030   Code   RO         4635    i.SDIO_DataConfig   stm32f10x_sdio.o
    0x080027e8   0x080027e8   0x00000024   Code   RO         4637    i.SDIO_DeInit       stm32f10x_sdio.o
    0x0800280c   0x0800280c   0x00000018   Code   RO         4641    i.SDIO_GetFlagStatus  stm32f10x_sdio.o
    0x08002824   0x08002824   0x00000010   Code   RO         4643    i.SDIO_GetPowerState  stm32f10x_sdio.o
    0x08002834   0x08002834   0x00000008   Code   RO          719    i.SDIO_IRQHandler   sd.o
    0x0800283c   0x0800283c   0x00000030   Code   RO         4646    i.SDIO_Init         stm32f10x_sdio.o
    0x0800286c   0x0800286c   0x0000000c   Code   RO         4647    i.SDIO_ReadData     stm32f10x_sdio.o
    0x08002878   0x08002878   0x0000002c   Code   RO         4649    i.SDIO_SendCommand  stm32f10x_sdio.o
    0x080028a4   0x080028a4   0x0000001c   Code   RO         4651    i.SDIO_SetPowerState  stm32f10x_sdio.o
    0x080028c0   0x080028c0   0x0000000c   Code   RO         4657    i.SDIO_WriteData    stm32f10x_sdio.o
    0x080028cc   0x080028cc   0x00000158   Code   RO          980    i.SD_Casd_InterFace  interface.o
    0x08002a24   0x08002a24   0x00000068   Code   RO          720    i.SD_DMA_Config     sd.o
    0x08002a8c   0x08002a8c   0x00000068   Code   RO          721    i.SD_EnableWideBusOperation  sd.o
    0x08002af4   0x08002af4   0x00000310   Code   RO          722    i.SD_GetCardInfo    sd.o
    0x08002e04   0x08002e04   0x000001ac   Code   RO         1036    i.SD_IFace_information  sd_iface.o
    0x08002fb0   0x08002fb0   0x000000e4   Code   RO          724    i.SD_Init           sd.o
    0x08003094   0x08003094   0x00000154   Code   RO          725    i.SD_InitializeCards  sd.o
    0x080031e8   0x080031e8   0x00000414   Code   RO         1037    i.SD_Picture_IFace  sd_iface.o
    0x080035fc   0x080035fc   0x000001dc   Code   RO          727    i.SD_PowerON        sd.o
    0x080037d8   0x080037d8   0x0000013c   Code   RO          728    i.SD_ProcessIRQSrc  sd.o
    0x08003914   0x08003914   0x00000258   Code   RO          729    i.SD_ReadBlock      sd.o
    0x08003b6c   0x08003b6c   0x00000098   Code   RO          730    i.SD_ReadDisk       sd.o
    0x08003c04   0x08003c04   0x000002e8   Code   RO          731    i.SD_ReadMultiBlocks  sd.o
    0x08003eec   0x08003eec   0x00000030   Code   RO          732    i.SD_SelectDeselect  sd.o
    0x08003f1c   0x08003f1c   0x00000018   Code   RO          734    i.SD_SetDeviceMode  sd.o
    0x08003f34   0x08003f34   0x000000d0   Code   RO         1038    i.SD_TXET_IFace     sd_iface.o
    0x08004004   0x08004004   0x00000374   Code   RO          735    i.SD_WriteBlock     sd.o
    0x08004378   0x08004378   0x00000098   Code   RO          736    i.SD_WriteDisk      sd.o
    0x08004410   0x08004410   0x000003c0   Code   RO          737    i.SD_WriteMultiBlocks  sd.o
    0x080047d0   0x080047d0   0x00000054   Code   RO          590    i.SPI1_ReadWriteByte  w25q64.o
    0x08004824   0x08004824   0x00000028   Code   RO          591    i.SPI1_SetSpeed     w25q64.o
    0x0800484c   0x0800484c   0x00000018   Code   RO         4819    i.SPI_Cmd           stm32f10x_spi.o
    0x08004864   0x08004864   0x00000012   Code   RO         4825    i.SPI_I2S_DMACmd    stm32f10x_spi.o
    0x08004876   0x08004876   0x00000012   Code   RO         4827    i.SPI_I2S_GetFlagStatus  stm32f10x_spi.o
    0x08004888   0x08004888   0x00000006   Code   RO         4830    i.SPI_I2S_ReceiveData  stm32f10x_spi.o
    0x0800488e   0x0800488e   0x00000004   Code   RO         4831    i.SPI_I2S_SendData  stm32f10x_spi.o
    0x08004892   0x08004892   0x0000003c   Code   RO         4832    i.SPI_Init          stm32f10x_spi.o
    0x080048ce   0x080048ce   0x00000002   Code   RO          213    i.SVC_Handler       stm32f10x_it.o
    0x080048d0   0x080048d0   0x00000008   Code   RO          270    i.SetSysClock       system_stm32f10x.o
    0x080048d8   0x080048d8   0x000000e0   Code   RO          271    i.SetSysClockTo72   system_stm32f10x.o
    0x080049b8   0x080049b8   0x000000bc   Code   RO         2638    i.Show_Font         text.o
    0x08004a74   0x08004a74   0x00000040   Code   RO          981    i.Show_Menu_All     interface.o
    0x08004ab4   0x08004ab4   0x00000040   Code   RO          982    i.Show_Menu_One     interface.o
    0x08004af4   0x08004af4   0x000000ca   Code   RO         2639    i.Show_Str          text.o
    0x08004bbe   0x08004bbe   0x00000028   Code   RO         3052    i.SysTick_CLKSourceConfig  misc.o
    0x08004be6   0x08004be6   0x00000002   Code   RO          214    i.SysTick_Handler   stm32f10x_it.o
    0x08004be8   0x08004be8   0x00000060   Code   RO          273    i.SystemInit        system_stm32f10x.o
    0x08004c48   0x08004c48   0x000000c8   Code   RO          438    i.TFT_SPI_Init      tft.o
    0x08004d10   0x08004d10   0x00000030   Code   RO         1437    i.TIM7_IRQHandler   usart.o
    0x08004d40   0x08004d40   0x00000028   Code   RO         1441    i.TIM7_Set          usart.o
    0x08004d68   0x08004d68   0x00000006   Code   RO         4969    i.TIM_ClearITPendingBit  stm32f10x_tim.o
    0x08004d6e   0x08004d6e   0x00000018   Code   RO         4974    i.TIM_Cmd           stm32f10x_tim.o
    0x08004d86   0x08004d86   0x00000022   Code   RO         4995    i.TIM_GetITStatus   stm32f10x_tim.o
    0x08004da8   0x08004da8   0x00000004   Code   RO         5039    i.TIM_SetCounter    stm32f10x_tim.o
    0x08004dac   0x08004dac   0x00000034   Code   RO         1146    i.T_Get_Adc         adc.o
    0x08004de0   0x08004de0   0x0000002e   Code   RO         1147    i.T_Get_Adc_Average  adc.o
    0x08004e0e   0x08004e0e   0x00000002   PAD
    0x08004e10   0x08004e10   0x00000064   Code   RO         1445    i.UART4_IRQHandler  usart.o
    0x08004e74   0x08004e74   0x00000088   Code   RO         1446    i.USART1_IRQHandler  usart.o
    0x08004efc   0x08004efc   0x00000018   Code   RO         3402    i.USART_Cmd         stm32f10x_usart.o
    0x08004f14   0x08004f14   0x00000054   Code   RO         3406    i.USART_GetITStatus  stm32f10x_usart.o
    0x08004f68   0x08004f68   0x0000004a   Code   RO         3408    i.USART_ITConfig    stm32f10x_usart.o
    0x08004fb2   0x08004fb2   0x00000002   PAD
    0x08004fb4   0x08004fb4   0x000000d8   Code   RO         3409    i.USART_Init        stm32f10x_usart.o
    0x0800508c   0x0800508c   0x0000000a   Code   RO         3416    i.USART_ReceiveData  stm32f10x_usart.o
    0x08005096   0x08005096   0x00000004   Code   RO          215    i.UsageFault_Handler  stm32f10x_it.o
    0x0800509a   0x0800509a   0x00000002   PAD
    0x0800509c   0x0800509c   0x000001cc   Code   RO          983    i.User_Main_InterFace  interface.o
    0x08005268   0x08005268   0x00000118   Code   RO          984    i.User_Modules_InterFace  interface.o
    0x08005380   0x08005380   0x00000058   Code   RO          593    i.W25QXX_Erase_Sector  w25q64.o
    0x080053d8   0x080053d8   0x00000050   Code   RO          595    i.W25QXX_Read       w25q64.o
    0x08005428   0x08005428   0x00000048   Code   RO          596    i.W25QXX_ReadID     w25q64.o
    0x08005470   0x08005470   0x0000002c   Code   RO          597    i.W25QXX_ReadSR     w25q64.o
    0x0800549c   0x0800549c   0x00000028   Code   RO          598    i.W25QXX_WAKEUP     w25q64.o
    0x080054c4   0x080054c4   0x00000012   Code   RO          599    i.W25QXX_Wait_Busy  w25q64.o
    0x080054d6   0x080054d6   0x00000002   PAD
    0x080054d8   0x080054d8   0x000000b8   Code   RO          600    i.W25QXX_Write      w25q64.o
    0x08005590   0x08005590   0x00000020   Code   RO          602    i.W25QXX_Write_Enable  w25q64.o
    0x080055b0   0x080055b0   0x00000046   Code   RO          603    i.W25QXX_Write_NoCheck  w25q64.o
    0x080055f6   0x080055f6   0x00000002   PAD
    0x080055f8   0x080055f8   0x00000054   Code   RO          604    i.W25QXX_Write_Page  w25q64.o
    0x0800564c   0x0800564c   0x00000104   Code   RO          606    i.W25Qxx_SPIAndIO_Init  w25q64.o
    0x08005750   0x08005750   0x00000020   Code   RO         6032    i.__0printf         mc_w.l(printfa.o)
    0x08005770   0x08005770   0x00000028   Code   RO         6034    i.__0sprintf        mc_w.l(printfa.o)
    0x08005798   0x08005798   0x0000000e   Code   RO         6127    i.__scatterload_copy  mc_w.l(handlers.o)
    0x080057a6   0x080057a6   0x00000002   Code   RO         6128    i.__scatterload_null  mc_w.l(handlers.o)
    0x080057a8   0x080057a8   0x0000000e   Code   RO         6129    i.__scatterload_zeroinit  mc_w.l(handlers.o)
    0x080057b6   0x080057b6   0x00000002   PAD
    0x080057b8   0x080057b8   0x00000184   Code   RO         6039    i._fp_digits        mc_w.l(printfa.o)
    0x0800593c   0x0800593c   0x000006b4   Code   RO         6040    i._printf_core      mc_w.l(printfa.o)
    0x08005ff0   0x08005ff0   0x00000024   Code   RO         6041    i._printf_post_padding  mc_w.l(printfa.o)
    0x08006014   0x08006014   0x0000002e   Code   RO         6042    i._printf_pre_padding  mc_w.l(printfa.o)
    0x08006042   0x08006042   0x0000000a   Code   RO         6044    i._sputc            mc_w.l(printfa.o)
    0x0800604c   0x0800604c   0x0000010c   Code   RO         2838    i.ai_draw_init      piclib.o
    0x08006158   0x08006158   0x000000e0   Code   RO         2839    i.ai_load_picfile   piclib.o
    0x08006238   0x08006238   0x0000001e   Code   RO         2908    i.alloc_pool        tjpgd.o
    0x08006256   0x08006256   0x00000090   Code   RO         2909    i.bitext            tjpgd.o
    0x080062e6   0x080062e6   0x00000002   PAD
    0x080062e8   0x080062e8   0x000002a8   Code   RO         2910    i.block_idct        tjpgd.o
    0x08006590   0x08006590   0x0000001a   Code   RO         2390    i.char_upper        exfuns.o
    0x080065aa   0x080065aa   0x00000002   PAD
    0x080065ac   0x080065ac   0x00000090   Code   RO         2005    i.check_fs          ff.o
    0x0800663c   0x0800663c   0x00000014   Code   RO         2006    i.chk_chr           ff.o
    0x08006650   0x08006650   0x00000032   Code   RO         2007    i.clmt_clust        ff.o
    0x08006682   0x08006682   0x0000001a   Code   RO         2008    i.clust2sect        ff.o
    0x0800669c   0x0800669c   0x00000090   Code   RO         2009    i.cmp_lfn           ff.o
    0x0800672c   0x0800672c   0x00000012   Code   RO          738    i.convert_from_bytes_to_power_of_two  sd.o
    0x0800673e   0x0800673e   0x000000d6   Code   RO         2010    i.create_chain      ff.o
    0x08006814   0x08006814   0x00000134   Code   RO         2911    i.create_huffman_tbl  tjpgd.o
    0x08006948   0x08006948   0x00000270   Code   RO         2011    i.create_name       ff.o
    0x08006bb8   0x08006bb8   0x00000074   Code   RO         2912    i.create_qt_tbl     tjpgd.o
    0x08006c2c   0x08006c2c   0x00000044   Code   RO         1381    i.delay_init        delay.o
    0x08006c70   0x08006c70   0x0000004c   Code   RO         1382    i.delay_ms          delay.o
    0x08006cbc   0x08006cbc   0x0000004c   Code   RO         1383    i.delay_us          delay.o
    0x08006d08   0x08006d08   0x0000005c   Code   RO         2012    i.dir_alloc         ff.o
    0x08006d64   0x08006d64   0x000000ea   Code   RO         2013    i.dir_find          ff.o
    0x08006e4e   0x08006e4e   0x0000010e   Code   RO         2014    i.dir_next          ff.o
    0x08006f5c   0x08006f5c   0x000000c6   Code   RO         2015    i.dir_read          ff.o
    0x08007022   0x08007022   0x0000012a   Code   RO         2016    i.dir_register      ff.o
    0x0800714c   0x0800714c   0x0000009e   Code   RO         2018    i.dir_sdi           ff.o
    0x080071ea   0x080071ea   0x00000002   PAD
    0x080071ec   0x080071ec   0x00000044   Code   RO         1938    i.disk_initialize   diskio.o
    0x08007230   0x08007230   0x000000b4   Code   RO         1939    i.disk_ioctl        diskio.o
    0x080072e4   0x080072e4   0x0000007a   Code   RO         1940    i.disk_read         diskio.o
    0x0800735e   0x0800735e   0x00000006   Code   RO         1941    i.disk_status       diskio.o
    0x08007364   0x08007364   0x0000007a   Code   RO         1942    i.disk_write        diskio.o
    0x080073de   0x080073de   0x0000004a   Code   RO         2391    i.exf_getfree       exfuns.o
    0x08007428   0x08007428   0x00000084   Code   RO         2392    i.exfuns_init       exfuns.o
    0x080074ac   0x080074ac   0x00000020   Code   RO         2020    i.f_close           ff.o
    0x080074cc   0x080074cc   0x00000102   Code   RO         2022    i.f_getfree         ff.o
    0x080075ce   0x080075ce   0x000002ac   Code   RO         2025    i.f_lseek           ff.o
    0x0800787a   0x0800787a   0x00000002   PAD
    0x0800787c   0x0800787c   0x0000005c   Code   RO         2028    i.f_mount           ff.o
    0x080078d8   0x080078d8   0x00000180   Code   RO         2029    i.f_open            ff.o
    0x08007a58   0x08007a58   0x00000088   Code   RO         2030    i.f_opendir         ff.o
    0x08007ae0   0x08007ae0   0x000001b0   Code   RO         2034    i.f_read            ff.o
    0x08007c90   0x08007c90   0x00000072   Code   RO         2035    i.f_readdir         ff.o
    0x08007d02   0x08007d02   0x000000b0   Code   RO         2039    i.f_sync            ff.o
    0x08007db2   0x08007db2   0x00000002   PAD
    0x08007db4   0x08007db4   0x000000c0   Code   RO         2393    i.f_typetell        exfuns.o
    0x08007e74   0x08007e74   0x0000007c   Code   RO         2363    i.ff_convert        cc936.o
    0x08007ef0   0x08007ef0   0x0000000e   Code   RO         1943    i.ff_memalloc       diskio.o
    0x08007efe   0x08007efe   0x0000000e   Code   RO         1944    i.ff_memfree        diskio.o
    0x08007f0c   0x08007f0c   0x00000038   Code   RO         2364    i.ff_wtoupper       cc936.o
    0x08007f44   0x08007f44   0x000003c8   Code   RO         2044    i.find_volume       ff.o
    0x0800830c   0x0800830c   0x00000080   Code   RO         2045    i.fit_lfn           ff.o
    0x0800838c   0x0800838c   0x00000090   Code   RO         2046    i.follow_path       ff.o
    0x0800841c   0x0800841c   0x00000044   Code   RO         2591    i.font_init         fontupd.o
    0x08008460   0x08008460   0x0000001c   Code   RO         1450    i.fputc             usart.o
    0x0800847c   0x0800847c   0x0000007c   Code   RO         2592    i.fupd_prog         fontupd.o
    0x080084f8   0x080084f8   0x000000cc   Code   RO         2047    i.gen_numname       ff.o
    0x080085c4   0x080085c4   0x000000f2   Code   RO         2048    i.get_fat           ff.o
    0x080086b6   0x080086b6   0x00000004   Code   RO         1945    i.get_fattime       diskio.o
    0x080086ba   0x080086ba   0x00000110   Code   RO         2049    i.get_fileinfo      ff.o
    0x080087ca   0x080087ca   0x0000004a   Code   RO         2050    i.get_ldnumber      ff.o
    0x08008814   0x08008814   0x00000058   Code   RO         2718    i.gif_check_head    gif.o
    0x0800886c   0x0800886c   0x000001f4   Code   RO         2719    i.gif_clear2bkcolor  gif.o
    0x08008a60   0x08008a60   0x0000012c   Code   RO         2720    i.gif_decode        gif.o
    0x08008b8c   0x08008b8c   0x00000228   Code   RO         2721    i.gif_dispimage     gif.o
    0x08008db4   0x08008db4   0x00000154   Code   RO         2722    i.gif_drawimage     gif.o
    0x08008f08   0x08008f08   0x00000060   Code   RO         2723    i.gif_getdatablock  gif.o
    0x08008f68   0x08008f68   0x00000046   Code   RO         2724    i.gif_getinfo       gif.o
    0x08008fae   0x08008fae   0x00000362   Code   RO         2725    i.gif_getnextbyte   gif.o
    0x08009310   0x08009310   0x000001cc   Code   RO         2726    i.gif_getnextcode   gif.o
    0x080094dc   0x080094dc   0x0000001c   Code   RO         2727    i.gif_getrgb565     gif.o
    0x080094f8   0x080094f8   0x00000098   Code   RO         2728    i.gif_initlzw       gif.o
    0x08009590   0x08009590   0x00000040   Code   RO         2730    i.gif_readcolortbl  gif.o
    0x080095d0   0x080095d0   0x000000a0   Code   RO         2731    i.gif_readextension  gif.o
    0x08009670   0x08009670   0x00000026   Code   RO         2732    i.gif_recovergctbl  gif.o
    0x08009696   0x08009696   0x00000026   Code   RO         2733    i.gif_savegctbl     gif.o
    0x080096bc   0x080096bc   0x000000c0   Code   RO         2913    i.huffext           tjpgd.o
    0x0800977c   0x0800977c   0x00000028   Code   RO         2840    i.is_element_ok     piclib.o
    0x080097a4   0x080097a4   0x000000a2   Code   RO         2914    i.jd_decomp         tjpgd.o
    0x08009846   0x08009846   0x0000039c   Code   RO         2915    i.jd_prepare        tjpgd.o
    0x08009be2   0x08009be2   0x00000002   PAD
    0x08009be4   0x08009be4   0x00000028   Code   RO         2916    i.jpeg_freeall      tjpgd.o
    0x08009c0c   0x08009c0c   0x00000030   Code   RO         2917    i.jpeg_in_func      tjpgd.o
    0x08009c3c   0x08009c3c   0x00000054   Code   RO         2918    i.jpeg_mallocall    tjpgd.o
    0x08009c90   0x08009c90   0x00000054   Code   RO         2919    i.jpeg_out_func_fill  tjpgd.o
    0x08009ce4   0x08009ce4   0x000000c0   Code   RO         2920    i.jpeg_out_func_point  tjpgd.o
    0x08009da4   0x08009da4   0x00000104   Code   RO         2921    i.jpg_decode        tjpgd.o
    0x08009ea8   0x08009ea8   0x00000020   Code   RO         2051    i.ld_clust          ff.o
    0x08009ec8   0x08009ec8   0x000002fc   Code   RO            1    i.main              main.o
    0x0800a1c4   0x0800a1c4   0x000001e0   Code   RO         2922    i.mcu_load          tjpgd.o
    0x0800a3a4   0x0800a3a4   0x00000394   Code   RO         2923    i.mcu_output        tjpgd.o
    0x0800a738   0x0800a738   0x00000026   Code   RO         2052    i.mem_cmp           ff.o
    0x0800a75e   0x0800a75e   0x0000001a   Code   RO         2053    i.mem_cpy           ff.o
    0x0800a778   0x0800a778   0x00000014   Code   RO         2054    i.mem_set           ff.o
    0x0800a78c   0x0800a78c   0x00000034   Code   RO         2055    i.move_window       ff.o
    0x0800a7c0   0x0800a7c0   0x0000006c   Code   RO          909    i.my_mem_free       malloc.o
    0x0800a82c   0x0800a82c   0x00000044   Code   RO          910    i.my_mem_init       malloc.o
    0x0800a870   0x0800a870   0x000000a8   Code   RO          911    i.my_mem_malloc     malloc.o
    0x0800a918   0x0800a918   0x00000040   Code   RO          912    i.my_mem_perused    malloc.o
    0x0800a958   0x0800a958   0x00000024   Code   RO          913    i.myfree            malloc.o
    0x0800a97c   0x0800a97c   0x00000028   Code   RO          914    i.mymalloc          malloc.o
    0x0800a9a4   0x0800a9a4   0x00000014   Code   RO          916    i.mymemset          malloc.o
    0x0800a9b8   0x0800a9b8   0x0000006c   Code   RO         1903    i.pic_get_tnum      user_fat.o
    0x0800aa24   0x0800aa24   0x0000000e   Code   RO         2841    i.pic_memalloc      piclib.o
    0x0800aa32   0x0800aa32   0x0000000e   Code   RO         2842    i.pic_memfree       piclib.o
    0x0800aa40   0x0800aa40   0x00000074   Code   RO         2056    i.pick_lfn          ff.o
    0x0800aab4   0x0800aab4   0x0000002c   Code   RO         2844    i.piclib_draw_hline  piclib.o
    0x0800aae0   0x0800aae0   0x0000002c   Code   RO         2845    i.piclib_fill_color  piclib.o
    0x0800ab0c   0x0800ab0c   0x00000048   Code   RO         2846    i.piclib_init       piclib.o
    0x0800ab54   0x0800ab54   0x00000142   Code   RO         2057    i.put_fat           ff.o
    0x0800ac96   0x0800ac96   0x0000006c   Code   RO         2059    i.remove_chain      ff.o
    0x0800ad02   0x0800ad02   0x00000070   Code   RO         2924    i.restart           tjpgd.o
    0x0800ad72   0x0800ad72   0x00000010   Code   RO         2060    i.st_clust          ff.o
    0x0800ad82   0x0800ad82   0x00000002   PAD
    0x0800ad84   0x0800ad84   0x000002e4   Code   RO         2680    i.stdbmp_decode     bmp.o
    0x0800b068   0x0800b068   0x00000020   Code   RO         2061    i.sum_sfn           ff.o
    0x0800b088   0x0800b088   0x000000c8   Code   RO         2062    i.sync_fs           ff.o
    0x0800b150   0x0800b150   0x00000052   Code   RO         2063    i.sync_window       ff.o
    0x0800b1a2   0x0800b1a2   0x00000002   PAD
    0x0800b1a4   0x0800b1a4   0x000000a0   Code   RO         1451    i.uart_init         usart.o
    0x0800b244   0x0800b244   0x00000164   Code   RO         2593    i.updata_fontx      fontupd.o
    0x0800b3a8   0x0800b3a8   0x00000364   Code   RO         2594    i.update_font       fontupd.o
    0x0800b70c   0x0800b70c   0x00000036   Code   RO         2064    i.validate          ff.o
    0x0800b742   0x0800b742   0x000033f8   Data   RO          441    .constdata          tft.o
    0x0800eb3a   0x0800eb3a   0x00000002   PAD
    0x0800eb3c   0x0800eb3c   0x00000018   Data   RO          921    .constdata          malloc.o
    0x0800eb54   0x0800eb54   0x0000003a   Data   RO         2065    .constdata          ff.o
    0x0800eb8e   0x0800eb8e   0x0002acc8   Data   RO         2365    .constdata          cc936.o
    0x08039856   0x08039856   0x00000002   PAD
    0x08039858   0x08039858   0x00000138   Data   RO         2395    .constdata          exfuns.o
    0x08039990   0x08039990   0x00000010   Data   RO         2596    .constdata          fontupd.o
    0x080399a0   0x080399a0   0x00000028   Data   RO         2734    .constdata          gif.o
    0x080399c8   0x080399c8   0x000004c0   Data   RO         2925    .constdata          tjpgd.o
    0x08039e88   0x08039e88   0x00000076   Data   RO          986    .conststring        interface.o
    0x08039efe   0x08039efe   0x00000002   PAD
    0x08039f00   0x08039f00   0x00000060   Data   RO         2396    .conststring        exfuns.o
    0x08039f60   0x08039f60   0x0000005f   Data   RO         2597    .conststring        fontupd.o
    0x08039fbf   0x08039fbf   0x00000001   PAD
    0x08039fc0   0x08039fc0   0x00000020   Data   RO         6125    Region$$Table       anon$$obj.o


    Execution Region RW_IRAM1 (Exec base: 0x20000000, Load base: 0x08039fe0, Size: 0x000043f0, Max: 0x0000c000, ABSOLUTE, COMPRESSED[0x00000098])

    Exec Addr    Load Addr    Size         Type   Attr      Idx    E Section Name        Object

    0x20000000   COMPRESSED   0x00000007   Data   RW            3    .data               main.o
    0x20000007   COMPRESSED   0x00000001   PAD
    0x20000008   COMPRESSED   0x00000014   Data   RW          274    .data               system_stm32f10x.o
    0x2000001c   COMPRESSED   0x00000001   Data   RW          306    .data               key.o
    0x2000001d   COMPRESSED   0x00000001   PAD
    0x2000001e   COMPRESSED   0x00000002   Data   RW          442    .data               tft.o
    0x20000020   COMPRESSED   0x00000010   Data   RW          740    .data               sd.o
    0x20000030   COMPRESSED   0x0000001c   Data   RW          922    .data               malloc.o
    0x2000004c   COMPRESSED   0x000000c2   Data   RW          987    .data               interface.o
    0x2000010e   COMPRESSED   0x00000004   Data   RW         1040    .data               sd_iface.o
    0x20000112   COMPRESSED   0x00000004   Data   RW         1384    .data               delay.o
    0x20000116   COMPRESSED   0x00000002   PAD
    0x20000118   COMPRESSED   0x00000008   Data   RW         1453    .data               usart.o
    0x20000120   COMPRESSED   0x00000002   Data   RW         1946    .data               diskio.o
    0x20000122   COMPRESSED   0x00000002   PAD
    0x20000124   COMPRESSED   0x0000000a   Data   RW         2066    .data               ff.o
    0x2000012e   COMPRESSED   0x00000002   PAD
    0x20000130   COMPRESSED   0x0000001c   Data   RW         2397    .data               exfuns.o
    0x2000014c   COMPRESSED   0x00000001   Data   RW         2735    .data               gif.o
    0x2000014d   COMPRESSED   0x00000003   PAD
    0x20000150   COMPRESSED   0x0000000c   Data   RW         2926    .data               tjpgd.o
    0x2000015c   COMPRESSED   0x00000014   Data   RW         3230    .data               stm32f10x_rcc.o
    0x20000170        -       0x00000028   Zero   RW            2    .bss                main.o
    0x20000198        -       0x0000002c   Zero   RW          440    .bss                tft.o
    0x200001c4        -       0x00001000   Zero   RW          607    .bss                w25q64.o
    0x200011c4   COMPRESSED   0x00000004   PAD
    0x200011c8        -       0x000002c0   Zero   RW          739    .bss                sd.o
    0x20001488   COMPRESSED   0x00000018   PAD
    0x200014a0        -       0x00002200   Zero   RW          920    .bss                malloc.o
    0x200036a0        -       0x00000028   Zero   RW          985    .bss                interface.o
    0x200036c8        -       0x000008c8   Zero   RW         1452    .bss                usart.o
    0x20003f90        -       0x00000021   Zero   RW         2595    .bss                fontupd.o
    0x20003fb1        -       0x0000003c   Zero   RW         2847    .bss                piclib.o
    0x20003fed   COMPRESSED   0x00000003   PAD
    0x20003ff0        -       0x00000400   Zero   RW         3041    STACK               startup_stm32f10x_hd.o



  Load Region LR$$.ARM.__AT_0x68000000 (Base: 0x68000000, Size: 0x00000000, Max: 0x00000020, ABSOLUTE)

    Execution Region ER$$.ARM.__AT_0x68000000 (Exec base: 0x68000000, Load base: 0x68000000, Size: 0x00000020, Max: 0x00000020, ABSOLUTE, UNINIT)

    Exec Addr    Load Addr    Size         Type   Attr      Idx    E Section Name        Object

    0x68000000        -       0x00000020   Zero   RW          918    .ARM.__AT_0x68000000  malloc.o



  Load Region LR$$.ARM.__AT_0x68000020 (Base: 0x68000020, Size: 0x00000000, Max: 0x00000004, ABSOLUTE)

    Execution Region ER$$.ARM.__AT_0x68000020 (Exec base: 0x68000020, Load base: 0x68000020, Size: 0x00000004, Max: 0x00000004, ABSOLUTE, UNINIT)

    Exec Addr    Load Addr    Size         Type   Attr      Idx    E Section Name        Object

    0x68000020        -       0x00000002   Zero   RW          919    .ARM.__AT_0x68000020  malloc.o


==============================================================================

Image component sizes


      Code (inc. data)   RO Data    RW Data    ZI Data      Debug   Object Name

       358         42          0          0          0       2174   adc.o
       740         22          0          0          0       3200   bmp.o
       180         18     175304          0          0       2123   cc936.o
       220         26          0          4          0       1523   delay.o
       530         16          0          2          0       7016   diskio.o
       424         22        408         28          0       6398   exfuns.o
      7910        106         58         10          0      42077   ff.o
      1416        160        111          0         33       5282   fontupd.o
      3752         26         40          1          0      17037   gif.o
      1352        142        118        194         40       5675   interface.o
       288         12          0          1          0     217100   key.o
        52          6          0          0          0        446   led.o
       764        224          0          7         40      78445   main.o
       504         60         24         28       8738       5837   malloc.o
       172         22          0          0          0       2029   misc.o
       720         50          0          0         60       6522   piclib.o
       846         82          0          0          0       6504   power.o
      7198        384          0         16        704      31138   sd.o
      1680        378          0          4          0       3462   sd_iface.o
        36          8        304          0       1024        760   startup_stm32f10x_hd.o
       522         30          0          0          0       8765   stm32f10x_adc.o
       492         26          0          0          0       4971   stm32f10x_dma.o
       200         18          0          0          0       2080   stm32f10x_exti.o
       512         10          0          0          0       4968   stm32f10x_gpio.o
        26          0          0          0          0       3362   stm32f10x_it.o
       364         50          0         20          0       5942   stm32f10x_rcc.o
       304         72          0          0          0       7666   stm32f10x_sdio.o
       130          0          0          0          0       4283   stm32f10x_spi.o
        68          0          0          0          0       2753   stm32f10x_tim.o
       408          6          0          0          0       4890   stm32f10x_usart.o
         8          0          0          0          0        773   sys.o
       328         28          0         20          0       2021   system_stm32f10x.o
       614          4          0          0          0       2847   text.o
      2228         80      13304          2         44      12620   tft.o
      4772        126       1216         12          0      22317   tjpgd.o
       512         56          0          8       2248       5123   usart.o
       108          0          0          0          0       4307   user_fat.o
      1096        100          0          0       4096       8007   w25q64.o

    ----------------------------------------------------------------------
     41880       2412     190926        368      17060     552443   Object Totals
         0          0         32          0          0          0   (incl. Generated)
        46          0          7         11         33          0   (incl. Padding)

    ----------------------------------------------------------------------

      Code (inc. data)   RO Data    RW Data    ZI Data      Debug   Library Member Name

        86          0          0          0          0          0   __dczerorl2.o
         0          0          0          0          0          0   entry.o
         0          0          0          0          0          0   entry10a.o
         0          0          0          0          0          0   entry11a.o
         4          0          0          0          0          0   entry12b.o
         8          4          0          0          0          0   entry2.o
         4          0          0          0          0          0   entry5.o
         0          0          0          0          0          0   entry7b.o
         0          0          0          0          0          0   entry8b.o
         8          4          0          0          0          0   entry9a.o
        30          0          0          0          0          0   handlers.o
        36          8          0          0          0         68   init.o
         0          0          0          0          0          0   iusefp.o
        98          0          0          0          0         84   ldiv.o
        30          0          0          0          0         68   llshl.o
        36          0          0          0          0         68   llsshr.o
        32          0          0          0          0         68   llushr.o
        36          0          0          0          0         68   memcpya.o
      2268         96          0          0          0        616   printfa.o
        24          0          0          0          0         68   strcat.o
        28          0          0          0          0         76   strcmp.o
        18          0          0          0          0         68   strcpy.o
        44          0          0          0          0         80   uidiv.o
        98          0          0          0          0         92   uldiv.o
        48          0          0          0          0         68   cdrcmple.o
        20          0          0          0          0         68   cfcmple.o
        20          0          0          0          0         68   cfrcmple.o
        56          0          0          0          0         88   d2f.o
       334          0          0          0          0        148   dadd.o
       222          0          0          0          0        100   ddiv.o
       186          0          0          0          0        176   depilogue.o
        62          0          0          0          0         80   dfixi.o
        48          0          0          0          0         68   dfixul.o
       228          0          0          0          0         96   dmul.o
        38          0          0          0          0         68   f2d.o
       176          0          0          0          0        140   fadd.o
       124          0          0          0          0         88   fdiv.o
       110          0          0          0          0        168   fepilogue.o
        40          0          0          0          0         68   ffixui.o
        18          0          0          0          0         68   fflti.o
        10          0          0          0          0         68   ffltui.o
       100          0          0          0          0         76   fmul.o

    ----------------------------------------------------------------------
      4730        112          0          0          0       3128   Library Totals
         2          0          0          0          0          0   (incl. Padding)

    ----------------------------------------------------------------------

      Code (inc. data)   RO Data    RW Data    ZI Data      Debug   Library Name

      2888        112          0          0          0       1424   mc_w.l
      1840          0          0          0          0       1704   mf_w.l

    ----------------------------------------------------------------------
      4730        112          0          0          0       3128   Library Totals

    ----------------------------------------------------------------------

==============================================================================


      Code (inc. data)   RO Data    RW Data    ZI Data      Debug   

     46610       2524     190926        368      17060     539475   Grand Totals
     46610       2524     190926        152      17060     539475   ELF Image Totals (compressed)
     46610       2524     190926        152          0          0   ROM Totals

==============================================================================

    Total RO  Size (Code + RO Data)               237536 ( 231.97kB)
    Total RW  Size (RW Data + ZI Data)             17428 (  17.02kB)
    Total ROM Size (Code + RO Data + RW Data)     237688 ( 232.12kB)

==============================================================================

